
 Start  Stop   Length Name               Class

 00000H 0AC1FH 0AC20H _TEXT              CODE
 0AC20H 0B71DH 00AFEH CNCIPOSS_TEXT      CODE
 0B71EH 0BA5AH 0033DH CNCIOPAR_TEXT      CODE
 0BA5BH 0BA5BH 00000H CNCDRCH_TEXT       CODE
 0BA5BH 0BA5BH 00000H CNCCSTI_TEXT       CODE
 0BA5BH 0C011H 005B7H CNCOTL_TEXT        CODE
 0C012H 0CA73H 00A62H CNCSTED_TEXT       CODE
 0CA74H 0D12CH 006B9H CNCUZSM_TEXT       CODE
 0D12DH 0D31BH 001EFH CNCUZERO_TEXT      CODE
 0D31CH 0DC18H 008FDH CNCUZCP_TEXT       CODE
 0DC19H 0E530H 00918H CNCUWKP_TEXT       CODE
 0E531H 0E6D4H 001A4H CNCUWERR_TEXT      CODE
 0E6D5H 0E9DBH 00307H CNCUSIM_TEXT       CODE
 0E9DCH 10892H 01EB7H CNCUR_PR_TEXT      CODE
 10893H 116B6H 00E24H CNCUNUMS_TEXT      CODE
 116B7H 12900H 0124AH CNCUNUMF_TEXT      CODE
 12901H 12914H 00014H CNCUNUL_TEXT       CODE
 12915H 14F6AH 02656H CNCUNP3_TEXT       CODE
 14F6BH 15DD3H 00E69H CNCUNP2_TEXT       CODE
 15DD4H 16C59H 00E86H CNCUNP1_TEXT       CODE
 16C5AH 17010H 003B7H CNCUINTF_TEXT      CODE
 17011H 1793AH 0092AH CNCUGRAN_TEXT      CODE
 1793BH 17E83H 00549H CNCUGR4_TEXT       CODE
 17E84H 1ADEFH 02F6CH CNCUFORM_TEXT      CODE
 1ADF0H 1C1BFH 013D0H CNCUFOM_TEXT       CODE
 1C1C0H 1C55EH 0039FH CNCUFNUM_TEXT      CODE
 1C55FH 1C5E5H 00087H CNCUFNM_TEXT       CODE
 1C5E6H 1DB33H 0154EH CNCUENDS_TEXT      CODE
 1DB34H 1DE1FH 002ECH CNCUASIM_TEXT      CODE
 1DE20H 1EC46H 00E27H CNCUANA_TEXT       CODE
 1EC47H 1F362H 0071CH CNCTSZR_TEXT       CODE
 1F363H 1FA29H 006C7H CNCTSTP_TEXT       CODE
 1FA2AH 1FBB4H 0018BH CNCTSM_TEXT        CODE
 1FBB5H 1FBFFH 0004BH CNCTRPR_TEXT       CODE
 1FC00H 1FEFCH 002FDH CNCTRES_TEXT       CODE
 1FEFDH 1FF40H 00044H CNCTRC2_TEXT       CODE
 1FF41H 1FF90H 00050H CNCTRC1_TEXT       CODE
 1FF91H 200A8H 00118H CNCTPOIN_TEXT      CODE
 200A9H 2037AH 002D2H CNCTMM_TEXT        CODE
 2037BH 20C9DH 00923H CNCTMFUN_TEXT      CODE
 20C9EH 20D43H 000A6H CNCTIO_TEXT        CODE
 20D44H 21669H 00926H CNCTINFM_TEXT      CODE
 2166AH 218A5H 0023CH CNCTCOM1_TEXT      CODE
 218A6H 21C7CH 003D7H CNCTCM_TEXT        CODE
 21C7DH 22188H 0050CH CNCTBGN_TEXT       CODE
 22189H 22499H 00311H ZAPIC_TEXT         CODE
 2249AH 227DEH 00345H OB_OUT_TEXT        CODE
 227DFH 22F23H 00745H OB_KON2_TEXT       CODE
 22F24H 23C31H 00D0EH OB_KON_TEXT        CODE
 23C32H 23F76H 00345H OB_IN_TEXT         CODE
 23F77H 25171H 011FBH MISTAKE_TEXT       CODE
 25172H 2676AH 015F9H GLAV_TEXT          CODE
 2676BH 274FCH 00D92H DIAG_TEXT          CODE
 274FDH 297E6H 022EAH AVTOYP_TEXT        CODE
 297E7H 2A841H 0105BH CNCISREF_TEXT      CODE
 2A842H 2B55EH 00D1DH CNCISPOZ_TEXT      CODE
 2B55FH 2B7DBH 0027DH CNCIRES_TEXT       CODE
 2B7DCH 2C856H 0107BH CNCIEOKS_TEXT      CODE
 2C857H 2E54FH 01CF9H CNCICRFN_TEXT      CODE
 2E550H 2E8EEH 0039FH CNCCIUNA_TEXT      CODE
 2E8EFH 2FDF5H 01507H CNCCISVL_TEXT      CODE
 2FDF6H 3013FH 0034AH CNCCISM0_TEXT      CODE
 30140H 30C4BH 00B0CH CNCCIRND_TEXT      CODE
 30C4CH 32E9EH 02253H CNCCIRNC_TEXT      CODE
 32E9FH 3309AH 001FCH CNCCIRDS_TEXT      CODE
 3309BH 33594H 004FAH CNCCIPOL_TEXT      CODE
 33595H 3479FH 0120BH CNCCIMRR_TEXT      CODE
 347A0H 37156H 029B7H CNCCILL_TEXT       CODE
 37157H 38995H 0183FH CNCCIKRG_TEXT      CODE
 38996H 391EBH 00856H CNCCIKCN_TEXT      CODE
 391ECH 3B0AAH 01EBFH CNCCIINP_TEXT      CODE
 3B0ABH 3C3CAH 01320H CNCCIEQV_TEXT      CODE
 3C3CBH 3C717H 0034DH CNCCICT_TEXT       CODE
 3C718H 3E678H 01F61H CNCCICRS_TEXT      CODE
 3E679H 3EAB8H 00440H CNCCTOK_TEXT       CODE
 3EAB9H 3EDAEH 002F6H CNCCSTR_TEXT       CODE
 3EDAFH 3F30FH 00561H CNCCRRDP_TEXT      CODE
 3F310H 3F742H 00433H CNCCRM_TEXT        CODE
 3F743H 3FB06H 003C4H CNCCREF_TEXT       CODE
 3FB07H 400C9H 005C3H CNCCOUTK_TEXT      CODE
 400CAH 4109AH 00FD1H CNCCMAN_TEXT       CODE
 4109BH 413A5H 0030BH CNCCFRS_TEXT       CODE
 413A6H 423BDH 01018H CNCCAUTO_TEXT      CODE
 423BEH 42D20H 00963H CNCXUPR_TEXT       CODE
 42D21H 43612H 008F2H CNCTEND_TEXT       CODE
 43613H 43F5CH 0094AH CNCTCOM2_TEXT      CODE
 43F5DH 449CBH 00A6FH CNCSUPR_TEXT       CODE
 449CCH 44C4AH 0027FH CNCMUP_TEXT        CODE
 44C4BH 4567FH 00A35H CNCIREF_TEXT       CODE
 45680H 46AF9H 0147AH CNCIPOS_TEXT       CODE
 46AFAH 47409H 00910H CNCILIN_TEXT       CODE
 4740AH 483C4H 00FBBH CNCIEOK_TEXT       CODE
 483C5H 4A1E7H 01E23H CNCIAX_TEXT        CODE
 4A1E8H 4A9D0H 007E9H CNCDTIME_TEXT      CODE
 4A9D1H 4B14EH 0077EH CNCDRC_TEXT        CODE
 4B14FH 4B14FH 00000H CNCDCAP_TEXT       CODE
 4B14FH 4BEFBH 00DADH CNCCAMP_TEXT       CODE
 4BEFCH 4C013H 00118H CNCTEDI_TEXT       CODE
 4C014H 4C017H 00004H CNCSVAR_TEXT       CODE
 4C018H 4C64AH 00633H CNCSTIO_TEXT       CODE
 4C64BH 4ED18H 026CEH CNCSTEDC_TEXT      CODE
 4ED19H 4EFCFH 002B7H CNCSRMSG_TEXT      CODE
 4EFD0H 4F432H 00463H CNCSMAN_TEXT       CODE
 4F433H 510B9H 01C87H CNCSKOR_TEXT       CODE
 510BAH 51232H 00179H CNCSJOG_TEXT       CODE
 51233H 515D7H 003A5H CNCSHOW_TEXT       CODE
 515D8H 51D83H 007ACH CNCSGSTR_TEXT      CODE
 51D84H 523A6H 00623H CNCSGSC_TEXT       CODE
 523A7H 52AAAH 00704H CNCSGEOM_TEXT      CODE
 52AABH 52AB1H 00007H CNCSGDC_TEXT       CODE
 52AB2H 52D6BH 002BAH CNCSFUN_TEXT       CODE
 52D6CH 538DAH 00B6FH CNCSFSPR_TEXT      CODE
 538DBH 5593DH 02063H CNCSFH_TEXT        CODE
 5593EH 55F5BH 0061EH CNCSEDIT_TEXT      CODE
 55F5CH 56A42H 00AE7H CNCSDIAG_TEXT      CODE
 56A43H 56D8CH 0034AH CNCSCWND_TEXT      CODE
 56D8DH 574B9H 0072DH CNCSCR_TEXT        CODE
 574BAH 57913H 0045AH CNCSCMPR_TEXT      CODE
 57914H 57D98H 00485H CNCSBEG_TEXT       CODE
 57D99H 58B0EH 00D76H CNCSAUTO_TEXT      CODE
 58B0FH 58B0FH 00000H CNCUNPAC_TEXT      CODE
 58B0FH 58B0FH 00000H CNCUN3_TEXT        CODE
 58B0FH 58B0FH 00000H CNCUN2_TEXT        CODE
 58B0FH 58B0FH 00000H CNCUN1_TEXT        CODE
 58B0FH 59704H 00BF6H CNCPAR_TEXT        CODE
 59705H 59705H 00000H CNCINTF_TEXT       CODE
 59705H 59705H 00000H CNCINTB_TEXT       CODE
 59705H 59705H 00000H CNCINT_TEXT        CODE
 59705H 59705H 00000H CNCHARD_TEXT       CODE
 59705H 597ABH 000A7H CNCED_TEXT         CODE
 597ACH 597ACH 00000H CNCCSTAT_TEXT      CODE
 597B0H 59D6FH 005C0H E87_PROG           CODE
 59D70H 5DF87H 04218H _TEXTA             CODE
 5DF88H 5EBD5H 00C4EH _TEXTC             CODE
 5EBE0H 5EBE0H 00000H _FARDATA           FAR_DATA
 5EBE0H 60B1FH 01F40H CNCDRCH5_DATA      FAR_DATA
 60B20H 61B1FH 01000H CNCUN15_DATA       FAR_DATA
 61B20H 647A2H 02C83H CNCPAR5_DATA       FAR_DATA
 647B0H 647B0H 00000H _FARBSS            FAR_BSS
 647B0H 647B0H 00000H _OVERLAY_          OVRINFO
 647B0H 647B0H 00000H _1STUB_            STUBSEG
 647B0H 664DBH 01D2CH _DATA              DATA
 664DCH 664DFH 00004H _CVTSEG            DATA
 664E0H 664EBH 0000CH _SCNSEG            DATA
 664ECH 664ECH 00000H _CONST             CONST
 664ECH 66533H 00048H _INIT_             INITDATA
 66534H 66534H 00000H _INITEND_          INITDATA
 66534H 66557H 00024H _EXIT_             EXITDATA
 66558H 66558H 00000H _EXITEND_          EXITDATA
 66558H 6EECBH 08974H _BSS               BSS
 6EECCH 6EECCH 00000H _BSSEND            BSSEND
 6EED0H 6F000H 00131H _STACK             STACK


Detailed map of segments

 0000:0000 0271 C=CODE   S=_TEXT          G=(none)   M=c0.asm     ACBP=28
 0000:0271 0000 C=CODE   S=_TEXT          G=(none)   M=deflt87    ACBP=28
 0000:0271 0000 C=CODE   S=_TEXT          G=(none)   M=protflag   ACBP=28
 0000:0271 0000 C=CODE   S=_TEXT          G=(none)   M=e87trap    ACBP=28
 0000:0271 0221 C=CODE   S=_TEXT          G=(none)   M=fp87init   ACBP=28
 0000:0492 0019 C=CODE   S=_TEXT          G=(none)   M=atof       ACBP=28
 0000:04AB 0076 C=CODE   S=_TEXT          G=(none)   M=efcvt      ACBP=28
 0000:0521 0000 C=CODE   S=_TEXT          G=(none)   M=hugeval    ACBP=28
 0000:0521 0000 C=CODE   S=_TEXT          G=(none)   M=mathwhy    ACBP=28
 0000:0521 00D8 C=CODE   S=_TEXT          G=(none)   M=strtod     ACBP=28
 0000:05F9 000F C=CODE   S=_TEXT          G=(none)   M=atan       ACBP=28
 0000:0608 0011 C=CODE   S=_TEXT          G=(none)   M=fabs       ACBP=28
 0000:0619 00C0 C=CODE   S=_TEXT          G=(none)   M=ldtrunc    ACBP=28
 0000:06D9 01D4 C=CODE   S=_TEXT          G=(none)   M=realcvt2   ACBP=28
 0000:08AD 002D C=CODE   S=_TEXT          G=(none)   M=round      ACBP=28
 0000:08DA 039F C=CODE   S=_TEXT          G=(none)   M=scantod2   ACBP=28
 0000:0C79 0216 C=CODE   S=_TEXT          G=(none)   M=xcvt       ACBP=28
 0000:0E8F 002E C=CODE   S=_TEXT          G=(none)   M=matherr    ACBP=28
 0000:0EBD 000D C=CODE   S=_TEXT          G=(none)   M=pow10d     ACBP=28
 0000:0ECA 00B0 C=CODE   S=_TEXT          G=(none)   M=_matherr   ACBP=28
 0000:0F7A 0052 C=CODE   S=_TEXT          G=(none)   M=cos        ACBP=28
 0000:0FCC 0033 C=CODE   S=_TEXT          G=(none)   M=modf       ACBP=28
 0000:0FFF 01FB C=CODE   S=_TEXT          G=(none)   M=pow        ACBP=28
 0000:11FA 0052 C=CODE   S=_TEXT          G=(none)   M=sin        ACBP=28
 0000:124C 0044 C=CODE   S=_TEXT          G=(none)   M=sqrt       ACBP=28
 0000:1290 0055 C=CODE   S=_TEXT          G=(none)   M=tan        ACBP=28
 0000:12E5 00CB C=CODE   S=_TEXT          G=(none)   M=_pow10     ACBP=28
 0000:13B0 00AA C=CODE   S=_TEXT          G=(none)   M=fperr      ACBP=28
 0000:145A 002C C=CODE   S=_TEXT          G=(none)   M=fftol      ACBP=28
 0000:1486 0014 C=CODE   S=_TEXT          G=(none)   M=bioscom    ACBP=28
 0000:149A 0000 C=CODE   S=_TEXT          G=(none)   M=wscroll    ACBP=28
 0000:149A 009E C=CODE   S=_TEXT          G=(none)   M=vram       ACBP=28
 0000:1538 0033 C=CODE   S=_TEXT          G=(none)   M=clreol     ACBP=28
 0000:156B 002D C=CODE   S=_TEXT          G=(none)   M=clrscr     ACBP=28
 0000:1598 0064 C=CODE   S=_TEXT          G=(none)   M=color      ACBP=28
 0000:15FC 0150 C=CODE   S=_TEXT          G=(none)   M=cprintf    ACBP=28
 0000:174C 0024 C=CODE   S=_TEXT          G=(none)   M=cputs      ACBP=28
 0000:1770 008D C=CODE   S=_TEXT          G=(none)   M=cursor     ACBP=28
 0000:17FD 004D C=CODE   S=_TEXT          G=(none)   M=gotoxy     ACBP=28
 0000:184A 00C8 C=CODE   S=_TEXT          G=(none)   M=gptext     ACBP=28
 0000:1912 00A8 C=CODE   S=_TEXT          G=(none)   M=movetext   ACBP=28
 0000:19BA 0019 C=CODE   S=_TEXT          G=(none)   M=putch      ACBP=28
 0000:19D3 01DB C=CODE   S=_TEXT          G=(none)   M=screen     ACBP=28
 0000:1BAE 0193 C=CODE   S=_TEXT          G=(none)   M=scroll     ACBP=28
 0000:1D41 0023 C=CODE   S=_TEXT          G=(none)   M=textmode   ACBP=28
 0000:1D64 005B C=CODE   S=_TEXT          G=(none)   M=vidinfo    ACBP=28
 0000:1DBF 0038 C=CODE   S=_TEXT          G=(none)   M=wherexy    ACBP=28
 0000:1DF7 0065 C=CODE   S=_TEXT          G=(none)   M=window     ACBP=28
 0000:1E5C 01B9 C=CODE   S=_TEXT          G=(none)   M=crtinit    ACBP=28
 0000:2015 0074 C=CODE   S=_TEXT          G=(none)   M=getch      ACBP=28
 0000:2089 0016 C=CODE   S=_TEXT          G=(none)   M=kbhit      ACBP=28
 0000:209F 003D C=CODE   S=_TEXT          G=(none)   M=_stpcpy    ACBP=28
 0000:20DC 0050 C=CODE   S=_TEXT          G=(none)   M=strpbrk    ACBP=28
 0000:212C 0028 C=CODE   S=_TEXT          G=(none)   M=memcmp     ACBP=28
 0000:2154 0024 C=CODE   S=_TEXT          G=(none)   M=memcpy     ACBP=28
 0000:2178 0049 C=CODE   S=_TEXT          G=(none)   M=memset     ACBP=28
 0000:21C1 0077 C=CODE   S=_TEXT          G=(none)   M=movmem     ACBP=28
 0000:2238 003F C=CODE   S=_TEXT          G=(none)   M=strcat     ACBP=28
 0000:2277 0030 C=CODE   S=_TEXT          G=(none)   M=strcmp     ACBP=28
 0000:22A7 0029 C=CODE   S=_TEXT          G=(none)   M=strcpy     ACBP=28
 0000:22D0 0021 C=CODE   S=_TEXT          G=(none)   M=strlen     ACBP=28
 0000:22F1 0031 C=CODE   S=_TEXT          G=(none)   M=strncpy    ACBP=28
 0000:2322 0034 C=CODE   S=_TEXT          G=(none)   M=strrev     ACBP=28
 0000:2356 006C C=CODE   S=_TEXT          G=(none)   M=strstr     ACBP=28
 0000:23C2 0000 C=CODE   S=_TEXT          G=(none)   M=files      ACBP=28
 0000:23C2 0000 C=CODE   S=_TEXT          G=(none)   M=files2     ACBP=28
 0000:23C2 0000 C=CODE   S=_TEXT          G=(none)   M=fmode      ACBP=28
 0000:23C2 0061 C=CODE   S=_TEXT          G=(none)   M=mkname     ACBP=28
 0000:2423 0169 C=CODE   S=_TEXT          G=(none)   M=setupio    ACBP=28
 0000:258C 001A C=CODE   S=_TEXT          G=(none)   M=xclose     ACBP=28
 0000:25A6 0052 C=CODE   S=_TEXT          G=(none)   M=ioerror    ACBP=28
 0000:25F8 0015 C=CODE   S=_TEXT          G=(none)   M=isatty     ACBP=28
 0000:260D 002D C=CODE   S=_TEXT          G=(none)   M=lseek      ACBP=28
 0000:263A 004F C=CODE   S=_TEXT          G=(none)   M=reada      ACBP=28
 0000:2689 04FE C=CODE   S=_TEXT          G=(none)   M=scanner    ACBP=28
 0000:2B87 001C C=CODE   S=_TEXT          G=(none)   M=unlink     ACBP=28
 0000:2BA3 04DB C=CODE   S=_TEXT          G=(none)   M=vprinter   ACBP=28
 0000:307E 0003 C=CODE   S=_TEXT          G=(none)   M=readu      ACBP=28
 0000:3081 0003 C=CODE   S=_TEXT          G=(none)   M=writeu     ACBP=28
 0000:3084 001A C=CODE   S=_TEXT          G=(none)   M=access     ACBP=28
 0000:309E 004E C=CODE   S=_TEXT          G=(none)   M=chmod      ACBP=28
 0000:30EC 002C C=CODE   S=_TEXT          G=(none)   M=close      ACBP=28
 0000:3118 00C1 C=CODE   S=_TEXT          G=(none)   M=fclose     ACBP=28
 0000:31D9 00DB C=CODE   S=_TEXT          G=(none)   M=fflush     ACBP=28
 0000:32B4 009E C=CODE   S=_TEXT          G=(none)   M=fgets      ACBP=28
 0000:3352 005C C=CODE   S=_TEXT          G=(none)   M=flushall   ACBP=28
 0000:33AE 0089 C=CODE   S=_TEXT          G=(none)   M=flushout   ACBP=28
 0000:3437 002F C=CODE   S=_TEXT          G=(none)   M=fnmerge    ACBP=28
 0000:3466 002F C=CODE   S=_TEXT          G=(none)   M=fnsplit    ACBP=28
 0000:3495 0233 C=CODE   S=_TEXT          G=(none)   M=fopen      ACBP=28
 0000:36C8 0020 C=CODE   S=_TEXT          G=(none)   M=fprintf    ACBP=28
 0000:36E8 0055 C=CODE   S=_TEXT          G=(none)   M=fputs      ACBP=28
 0000:373D 0028 C=CODE   S=_TEXT          G=(none)   M=fscanf     ACBP=28
 0000:3765 01F1 C=CODE   S=_TEXT          G=(none)   M=fseek      ACBP=28
 0000:3956 00D5 C=CODE   S=_TEXT          G=(none)   M=makepath   ACBP=28
 0000:3A2B 0097 C=CODE   S=_TEXT          G=(none)   M=perror     ACBP=28
 0000:3AC2 03E7 C=CODE   S=_TEXT          G=(none)   M=putc       ACBP=28
 0000:3EA9 0125 C=CODE   S=_TEXT          G=(none)   M=setvbuf    ACBP=28
 0000:3FCE 0306 C=CODE   S=_TEXT          G=(none)   M=splitpth   ACBP=28
 0000:42D4 0090 C=CODE   S=_TEXT          G=(none)   M=sprintf    ACBP=28
 0000:4364 0088 C=CODE   S=_TEXT          G=(none)   M=sscanf     ACBP=28
 0000:43EC 016A C=CODE   S=_TEXT          G=(none)   M=write      ACBP=28
 0000:4556 004A C=CODE   S=_TEXT          G=(none)   M=xfclose    ACBP=28
 0000:45A0 0049 C=CODE   S=_TEXT          G=(none)   M=xfflush    ACBP=28
 0000:45E9 003D C=CODE   S=_TEXT          G=(none)   M=_access    ACBP=28
 0000:4626 0021 C=CODE   S=_TEXT          G=(none)   M=chmoda     ACBP=28
 0000:4647 0033 C=CODE   S=_TEXT          G=(none)   M=closea     ACBP=28
 0000:467A 007E C=CODE   S=_TEXT          G=(none)   M=eof        ACBP=28
 0000:46F8 0068 C=CODE   S=_TEXT          G=(none)   M=findfirs   ACBP=28
 0000:4760 01F1 C=CODE   S=_TEXT          G=(none)   M=getc       ACBP=28
 0000:4951 01DD C=CODE   S=_TEXT          G=(none)   M=open       ACBP=28
 0000:4B2E 006C C=CODE   S=_TEXT          G=(none)   M=opena      ACBP=28
 0000:4B9A 00D1 C=CODE   S=_TEXT          G=(none)   M=read       ACBP=28
 0000:4C6B 001F C=CODE   S=_TEXT          G=(none)   M=rename     ACBP=28
 0000:4C8A 0078 C=CODE   S=_TEXT          G=(none)   M=ungetc     ACBP=28
 0000:4D02 005C C=CODE   S=_TEXT          G=(none)   M=writea     ACBP=28
 0000:4D5E 002D C=CODE   S=_TEXT          G=(none)   M=ioctl      ACBP=28
 0000:4D8B 000A C=CODE   S=_TEXT          G=(none)   M=cconv      ACBP=28
 0000:4D95 0000 C=CODE   S=_TEXT          G=(none)   M=ctype      ACBP=28
 0000:4D95 0030 C=CODE   S=_TEXT          G=(none)   M=tolower    ACBP=28
 0000:4DC5 0030 C=CODE   S=_TEXT          G=(none)   M=toupper    ACBP=28
 0000:4DF5 0017 C=CODE   S=_TEXT          G=(none)   M=f_lxmul    ACBP=28
 0000:4E0C 00AE C=CODE   S=_TEXT          G=(none)   M=h_ldiv     ACBP=28
 0000:4EBA 0021 C=CODE   S=_TEXT          G=(none)   M=h_llsh     ACBP=28
 0000:4EDB 0021 C=CODE   S=_TEXT          G=(none)   M=h_lursh    ACBP=28
 0000:4EFC 0017 C=CODE   S=_TEXT          G=(none)   M=n_lxmul    ACBP=28
 0000:4F13 002C C=CODE   S=_TEXT          G=(none)   M=labs       ACBP=28
 0000:4F3F 00A6 C=CODE   S=_TEXT          G=(none)   M=longtoa    ACBP=28
 0000:4FE5 01D1 C=CODE   S=_TEXT          G=(none)   M=scantol    ACBP=28
 0000:51B6 01EC C=CODE   S=_TEXT          G=(none)   M=fdiv16     ACBP=28
 0000:53A2 0000 C=CODE   S=_TEXT          G=(none)   M=fpstklen   ACBP=28
 0000:53A2 007C C=CODE   S=_TEXT          G=(none)   M=ltoa1      ACBP=28
 0000:541E 008A C=CODE   S=_TEXT          G=(none)   M=atol       ACBP=28
 0000:54A8 001F C=CODE   S=_TEXT          G=(none)   M=cvtfak     ACBP=28
 0000:54C7 0004 C=CODE   S=_TEXT          G=(none)   M=realcvt    ACBP=28
 0000:54CB 000C C=CODE   S=_TEXT          G=(none)   M=scantod    ACBP=28
 0000:54D7 0000 C=CODE   S=_TEXT          G=(none)   M=stklen     ACBP=28
 0000:54D7 0290 C=CODE   S=_TEXT          G=(none)   M=setnew     ACBP=28
 0000:5767 0016 C=CODE   S=_TEXT          G=(none)   M=del        ACBP=28
 0000:577D 0016 C=CODE   S=_TEXT          G=(none)   M=delarray   ACBP=28
 0000:5793 00C2 C=CODE   S=_TEXT          G=(none)   M=new        ACBP=28
 0000:5855 0012 C=CODE   S=_TEXT          G=(none)   M=newarray   ACBP=28
 0000:5867 0432 C=CODE   S=_TEXT          G=(none)   M=farheap    ACBP=28
 0000:5C99 0061 C=CODE   S=_TEXT          G=(none)   M=calloc     ACBP=28
 0000:5CFA 0160 C=CODE   S=_TEXT          G=(none)   M=fbrk       ACBP=28
 0000:5E5A 0050 C=CODE   S=_TEXT          G=(none)   M=fcorelft   ACBP=28
 0000:5EAA 000A C=CODE   S=_TEXT          G=(none)   M=coreleft   ACBP=28
 0000:5EB4 0094 C=CODE   S=_TEXT          G=(none)   M=fcalloc    ACBP=28
 0000:5F48 0020 C=CODE   S=_TEXT          G=(none)   M=setblock   ACBP=28
 0000:5F68 0088 C=CODE   S=_TEXT          G=(none)   M=h_pada     ACBP=28
 0000:5FF0 0060 C=CODE   S=_TEXT          G=(none)   M=h_padd     ACBP=28
 0000:6050 0028 C=CODE   S=_TEXT          G=(none)   M=h_psbp     ACBP=28
 0000:6078 0021 C=CODE   S=_TEXT          G=(none)   M=n_pcmp     ACBP=28
 0000:6099 001C C=CODE   S=_TEXT          G=(none)   M=n_scopy    ACBP=28
 0000:60B5 002A C=CODE   S=_TEXT          G=(none)   M=errormsg   ACBP=28
 0000:60DF 001F C=CODE   S=_TEXT          G=(none)   M=getswit    ACBP=28
 0000:60FE 0038 C=CODE   S=_TEXT          G=(none)   M=inport     ACBP=28
 0000:6136 0042 C=CODE   S=_TEXT          G=(none)   M=outport    ACBP=28
 0000:6178 005C C=CODE   S=_TEXT          G=(none)   M=cputype    ACBP=28
 0000:61D4 0014 C=CODE   S=_TEXT          G=(none)   M=abort      ACBP=28
 0000:61E8 0031 C=CODE   S=_TEXT          G=(none)   M=atexit     ACBP=28
 0000:6219 00AA C=CODE   S=_TEXT          G=(none)   M=exit       ACBP=28
 0000:62C3 0000 C=CODE   S=_TEXT          G=(none)   M=sigdata    ACBP=28
 0000:62C3 001B C=CODE   S=_TEXT          G=(none)   M=_abort     ACBP=28
 0000:62DE 0028 C=CODE   S=_TEXT          G=(none)   M=getvect    ACBP=28
 0000:6306 0022 C=CODE   S=_TEXT          G=(none)   M=segread    ACBP=28
 0000:6328 016D C=CODE   S=_TEXT          G=(none)   M=dosenv     ACBP=28
 0000:6495 0070 C=CODE   S=_TEXT          G=(none)   M=getenv     ACBP=28
 0000:6505 0058 C=CODE   S=_TEXT          G=(none)   M=setenvp    ACBP=28
 0000:655D 043D C=CODE   S=_TEXT          G=(none)   M=signal     ACBP=28
 0000:699A 00CF C=CODE   S=_TEXT          G=(none)   M=int86      ACBP=28
 0000:6A69 0092 C=CODE   S=_TEXT          G=(none)   M=intdos     ACBP=28
 0000:6AFB 00C6 C=CODE   S=_TEXT          G=(none)   M=spawn      ACBP=28
 0000:6BC1 0182 C=CODE   S=_TEXT          G=(none)   M=system     ACBP=28
 0000:6D43 029B C=CODE   S=_TEXT          G=(none)   M=xxv        ACBP=28
 0000:6FDE 0207 C=CODE   S=_TEXT          G=(none)   M=xalloc     ACBP=28
 0000:71E5 03D7 C=CODE   S=_TEXT          G=(none)   M=xmsg       ACBP=28
 0000:75BC 005D C=CODE   S=_TEXT          G=(none)   M=xxa        ACBP=28
 0000:7619 008F C=CODE   S=_TEXT          G=(none)   M=xxas       ACBP=28
 0000:76A8 31F8 C=CODE   S=_TEXT          G=(none)   M=xx         ACBP=28
 0000:A8A0 0061 C=CODE   S=_TEXT          G=(none)   M=ctor2      ACBP=28
 0000:A901 00D1 C=CODE   S=_TEXT          G=(none)   M=ctor3      ACBP=28
 0000:A9D2 024E C=CODE   S=_TEXT          G=(none)   M=strings    ACBP=28
 0AC2:0000 0AFE C=CODE   S=CNCIPOSS_TEXT  G=(none) M=..\cncdrc\cnciposs.cpp ACBP=28
 0B71:000E 033D C=CODE   S=CNCIOPAR_TEXT  G=(none) M=..\cnccom\cnciopar.cpp ACBP=28
 0BA5:000B 0000 C=CODE   S=CNCDRCH_TEXT   G=(none) M=..\cncdrc\cncdrch.cpp ACBP=28
 0BA5:000B 0000 C=CODE   S=CNCCSTI_TEXT   G=(none) M=..\cnccom\cnccsti.cpp ACBP=28
 0BA5:000B 05B7 C=CODE   S=CNCOTL_TEXT    G=(none) M=cncotl.cpp ACBP=28
 0C01:0002 0A62 C=CODE   S=CNCSTED_TEXT   G=(none) M=..\cncshow\cncsted.cpp ACBP=28
 0CA7:0004 06B9 C=CODE   S=CNCUZSM_TEXT   G=(none) M=..\cncunpac\cncuzsm.cpp ACBP=28
 0D12:000D 01EF C=CODE   S=CNCUZERO_TEXT  G=(none) M=..\cncunpac\cncuzero.cpp ACBP=28
 0D31:000C 08FD C=CODE   S=CNCUZCP_TEXT   G=(none) M=..\cncunpac\cncuzcp.cpp ACBP=28
 0DC1:0009 0918 C=CODE   S=CNCUWKP_TEXT   G=(none) M=..\cncunpac\cncuwkp.cpp ACBP=28
 0E53:0001 01A4 C=CODE   S=CNCUWERR_TEXT  G=(none) M=..\cncunpac\cncuwerr.cpp ACBP=28
 0E6D:0005 0307 C=CODE   S=CNCUSIM_TEXT   G=(none) M=..\cncunpac\cncusim.cpp ACBP=28
 0E9D:000C 1EB7 C=CODE   S=CNCUR_PR_TEXT  G=(none) M=..\cncunpac\cncur_pr.cpp ACBP=28
 1089:0003 0E24 C=CODE   S=CNCUNUMS_TEXT  G=(none) M=..\cncunpac\cncunums.cpp ACBP=28
 116B:0007 124A C=CODE   S=CNCUNUMF_TEXT  G=(none) M=..\cncunpac\cncunumf.cpp ACBP=28
 1290:0001 0014 C=CODE   S=CNCUNUL_TEXT   G=(none) M=..\cncunpac\cncunul.cpp ACBP=28
 1291:0005 2656 C=CODE   S=CNCUNP3_TEXT   G=(none) M=..\cncunpac\cncunp3.cpp ACBP=28
 14F6:000B 0E69 C=CODE   S=CNCUNP2_TEXT   G=(none) M=..\cncunpac\cncunp2.cpp ACBP=28
 15DD:0004 0E86 C=CODE   S=CNCUNP1_TEXT   G=(none) M=..\cncunpac\cncunp1.cpp ACBP=28
 16C5:000A 03B7 C=CODE   S=CNCUINTF_TEXT  G=(none) M=..\cncunpac\cncuintf.cpp ACBP=28
 1701:0001 092A C=CODE   S=CNCUGRAN_TEXT  G=(none) M=..\cncunpac\cncugran.cpp ACBP=28
 1793:000B 0549 C=CODE   S=CNCUGR4_TEXT   G=(none) M=..\cncunpac\cncugr4.cpp ACBP=28
 17E8:0004 2F6C C=CODE   S=CNCUFORM_TEXT  G=(none) M=..\cncunpac\cncuform.cpp ACBP=28
 1ADF:0000 13D0 C=CODE   S=CNCUFOM_TEXT   G=(none) M=..\cncunpac\cncufom.cpp ACBP=28
 1C1C:0000 039F C=CODE   S=CNCUFNUM_TEXT  G=(none) M=..\cncunpac\cncufnum.cpp ACBP=28
 1C55:000F 0087 C=CODE   S=CNCUFNM_TEXT   G=(none) M=..\cncunpac\cncufnm.cpp ACBP=28
 1C5E:0006 154E C=CODE   S=CNCUENDS_TEXT  G=(none) M=..\cncunpac\cncuends.cpp ACBP=28
 1DB3:0004 02EC C=CODE   S=CNCUASIM_TEXT  G=(none) M=..\cncunpac\cncuasim.cpp ACBP=28
 1DE2:0000 0E27 C=CODE   S=CNCUANA_TEXT   G=(none) M=..\cncunpac\cncuana.cpp ACBP=28
 1EC4:0007 071C C=CODE   S=CNCTSZR_TEXT   G=(none) M=..\cnctime\cnctszr.cpp ACBP=28
 1F36:0003 06C7 C=CODE   S=CNCTSTP_TEXT   G=(none) M=..\cnctime\cnctstp.cpp ACBP=28
 1FA2:000A 018B C=CODE   S=CNCTSM_TEXT    G=(none) M=..\cnctime\cnctsm.cpp ACBP=28
 1FBB:0005 004B C=CODE   S=CNCTRPR_TEXT   G=(none) M=..\cnctime\cnctrpr.cpp ACBP=28
 1FC0:0000 02FD C=CODE   S=CNCTRES_TEXT   G=(none) M=..\cnctime\cnctres.cpp ACBP=28
 1FEF:000D 0044 C=CODE   S=CNCTRC2_TEXT   G=(none) M=..\cnctime\cnctrc2.cpp ACBP=28
 1FF4:0001 0050 C=CODE   S=CNCTRC1_TEXT   G=(none) M=..\cnctime\cnctrc1.cpp ACBP=28
 1FF9:0001 0118 C=CODE   S=CNCTPOIN_TEXT  G=(none) M=..\cnctime\cnctpoin.cpp ACBP=28
 200A:0009 02D2 C=CODE   S=CNCTMM_TEXT    G=(none) M=..\cnctime\cnctmm.cpp ACBP=28
 2037:000B 0923 C=CODE   S=CNCTMFUN_TEXT  G=(none) M=..\cnctime\cnctmfun.cpp ACBP=28
 20C9:000E 00A6 C=CODE   S=CNCTIO_TEXT    G=(none) M=..\cnctime\cnctio.cpp ACBP=28
 20D4:0004 0926 C=CODE   S=CNCTINFM_TEXT  G=(none) M=..\cnctime\cnctinfm.cpp ACBP=28
 2166:000A 023C C=CODE   S=CNCTCOM1_TEXT  G=(none) M=..\cnctime\cnctcom1.cpp ACBP=28
 218A:0006 03D7 C=CODE   S=CNCTCM_TEXT    G=(none) M=..\cnctime\cnctcm.cpp ACBP=28
 21C7:000D 050C C=CODE   S=CNCTBGN_TEXT   G=(none) M=..\cnctime\cnctbgn.cpp ACBP=28
 2218:0009 0311 C=CODE   S=ZAPIC_TEXT     G=(none) M=..\cncserr\zapic.cpp ACBP=28
 2249:000A 0345 C=CODE   S=OB_OUT_TEXT    G=(none) M=..\cncserr\ob_out.cpp ACBP=28
 227D:000F 0745 C=CODE   S=OB_KON2_TEXT   G=(none) M=..\cncserr\ob_kon2.cpp ACBP=28
 22F2:0004 0D0E C=CODE   S=OB_KON_TEXT    G=(none) M=..\cncserr\ob_kon.cpp ACBP=28
 23C3:0002 0345 C=CODE   S=OB_IN_TEXT     G=(none) M=..\cncserr\ob_in.cpp ACBP=28
 23F7:0007 11FB C=CODE   S=MISTAKE_TEXT   G=(none) M=..\cncserr\mistake.cpp ACBP=28
 2517:0002 15F9 C=CODE   S=GLAV_TEXT      G=(none) M=..\cncserr\glav.cpp ACBP=28
 2676:000B 0D92 C=CODE   S=DIAG_TEXT      G=(none) M=..\cncserr\diag.cpp ACBP=28
 274F:000D 22EA C=CODE   S=AVTOYP_TEXT    G=(none) M=..\cncserr\avtoyp.cpp ACBP=28
 297E:0007 105B C=CODE   S=CNCISREF_TEXT  G=(none) M=..\cncdrv\cncisref.cpp ACBP=28
 2A84:0002 0D1D C=CODE   S=CNCISPOZ_TEXT  G=(none) M=..\cncdrv\cncispoz.cpp ACBP=28
 2B55:000F 027D C=CODE   S=CNCIRES_TEXT   G=(none) M=..\cncdrv\cncires.cpp ACBP=28
 2B7D:000C 107B C=CODE   S=CNCIEOKS_TEXT  G=(none) M=..\cncdrv\cncieoks.cpp ACBP=28
 2C85:0007 1CF9 C=CODE   S=CNCICRFN_TEXT  G=(none) M=..\cncdrv\cncicrfn.cpp ACBP=28
 2E55:0000 039F C=CODE   S=CNCCIUNA_TEXT  G=(none) M=..\cncci\cncciuna.cpp ACBP=28
 2E8E:000F 1507 C=CODE   S=CNCCISVL_TEXT  G=(none) M=..\cncci\cnccisvl.cpp ACBP=28
 2FDF:0006 034A C=CODE   S=CNCCISM0_TEXT  G=(none) M=..\cncci\cnccism0.cpp ACBP=28
 3014:0000 0B0C C=CODE   S=CNCCIRND_TEXT  G=(none) M=..\cncci\cnccirnd.cpp ACBP=28
 30C4:000C 2253 C=CODE   S=CNCCIRNC_TEXT  G=(none) M=..\cncci\cnccirnc.cpp ACBP=28
 32E9:000F 01FC C=CODE   S=CNCCIRDS_TEXT  G=(none) M=..\cncci\cnccirds.cpp ACBP=28
 3309:000B 04FA C=CODE   S=CNCCIPOL_TEXT  G=(none) M=..\cncci\cnccipol.cpp ACBP=28
 3359:0005 120B C=CODE   S=CNCCIMRR_TEXT  G=(none) M=..\cncci\cnccimrr.cpp ACBP=28
 347A:0000 29B7 C=CODE   S=CNCCILL_TEXT   G=(none) M=..\cncci\cnccill.cpp ACBP=28
 3715:0007 183F C=CODE   S=CNCCIKRG_TEXT  G=(none) M=..\cncci\cnccikrg.cpp ACBP=28
 3899:0006 0856 C=CODE   S=CNCCIKCN_TEXT  G=(none) M=..\cncci\cnccikcn.cpp ACBP=28
 391E:000C 1EBF C=CODE   S=CNCCIINP_TEXT  G=(none) M=..\cncci\cncciinp.cpp ACBP=28
 3B0A:000B 1320 C=CODE   S=CNCCIEQV_TEXT  G=(none) M=..\cncci\cnccieqv.cpp ACBP=28
 3C3C:000B 034D C=CODE   S=CNCCICT_TEXT   G=(none) M=..\cncci\cnccict.cpp ACBP=28
 3C71:0008 1F61 C=CODE   S=CNCCICRS_TEXT  G=(none) M=..\cncci\cnccicrs.cpp ACBP=28
 3E67:0009 0440 C=CODE   S=CNCCTOK_TEXT   G=(none) M=..\cnccamp\cncctok.cpp ACBP=28
 3EAB:0009 02F6 C=CODE   S=CNCCSTR_TEXT   G=(none) M=..\cnccamp\cnccstr.cpp ACBP=28
 3EDA:000F 0561 C=CODE   S=CNCCRRDP_TEXT  G=(none) M=..\cnccamp\cnccrrdp.cpp ACBP=28
 3F31:0000 0433 C=CODE   S=CNCCRM_TEXT    G=(none) M=..\cnccamp\cnccrm.cpp ACBP=28
 3F74:0003 03C4 C=CODE   S=CNCCREF_TEXT   G=(none) M=..\cnccamp\cnccref.cpp ACBP=28
 3FB0:0007 05C3 C=CODE   S=CNCCOUTK_TEXT  G=(none) M=..\cnccamp\cnccoutk.cpp ACBP=28
 400C:000A 0FD1 C=CODE   S=CNCCMAN_TEXT   G=(none) M=..\cnccamp\cnccman.cpp ACBP=28
 4109:000B 030B C=CODE   S=CNCCFRS_TEXT   G=(none) M=..\cnccamp\cnccfrs.cpp ACBP=28
 413A:0006 1018 C=CODE   S=CNCCAUTO_TEXT  G=(none) M=..\cnccamp\cnccauto.cpp ACBP=28
 423B:000E 0963 C=CODE   S=CNCXUPR_TEXT   G=(none) M=..\cncdrc\cncxupr.cpp ACBP=28
 42D2:0001 08F2 C=CODE   S=CNCTEND_TEXT   G=(none) M=..\cncdrc\cnctend.cpp ACBP=28
 4361:0003 094A C=CODE   S=CNCTCOM2_TEXT  G=(none) M=..\cncdrc\cnctcom2.cpp ACBP=28
 43F5:000D 0A6F C=CODE   S=CNCSUPR_TEXT   G=(none) M=..\cncdrc\cncsupr.cpp ACBP=28
 449C:000C 027F C=CODE   S=CNCMUP_TEXT    G=(none) M=..\cncdrc\cncmup.cpp ACBP=28
 44C4:000B 0A35 C=CODE   S=CNCIREF_TEXT   G=(none) M=..\cncdrc\cnciref.cpp ACBP=28
 4568:0000 147A C=CODE   S=CNCIPOS_TEXT   G=(none) M=..\cncdrc\cncipos.cpp ACBP=28
 46AF:000A 0910 C=CODE   S=CNCILIN_TEXT   G=(none) M=..\cncdrc\cncilin.cpp ACBP=28
 4740:000A 0FBB C=CODE   S=CNCIEOK_TEXT   G=(none) M=..\cncdrc\cncieok.cpp ACBP=28
 483C:0005 1E23 C=CODE   S=CNCIAX_TEXT    G=(none) M=..\cncdrc\cnciax.cpp ACBP=28
 4A1E:0008 07E9 C=CODE   S=CNCDTIME_TEXT  G=(none) M=..\cncdrc\cncdtime.cpp ACBP=28
 4A9D:0001 077E C=CODE   S=CNCDRC_TEXT    G=(none) M=..\cncdrc\cncdrc.cpp ACBP=28
 4B14:000F 0000 C=CODE   S=CNCDCAP_TEXT   G=(none) M=..\cncdrc\cncdcap.cpp ACBP=28
 4B14:000F 0DAD C=CODE   S=CNCCAMP_TEXT   G=(none) M=..\cncdrc\cnccamp.cpp ACBP=28
 4BEF:000C 0118 C=CODE   S=CNCTEDI_TEXT   G=(none) M=..\cncshow\cnctedi.cpp ACBP=28
 4C01:0004 0004 C=CODE   S=CNCSVAR_TEXT   G=(none) M=..\cncshow\cncsvar.cpp ACBP=28
 4C01:0008 0633 C=CODE   S=CNCSTIO_TEXT   G=(none) M=..\cncshow\cncstio.cpp ACBP=28
 4C64:000B 26CE C=CODE   S=CNCSTEDC_TEXT  G=(none) M=..\cncshow\cncstedc.cpp ACBP=28
 4ED1:0009 02B7 C=CODE   S=CNCSRMSG_TEXT  G=(none) M=..\cncshow\cncsrmsg.cpp ACBP=28
 4EFD:0000 0463 C=CODE   S=CNCSMAN_TEXT   G=(none) M=..\cncshow\cncsman.cpp ACBP=28
 4F43:0003 1C87 C=CODE   S=CNCSKOR_TEXT   G=(none) M=..\cncshow\cncskor.cpp ACBP=28
 510B:000A 0179 C=CODE   S=CNCSJOG_TEXT   G=(none) M=..\cncshow\cncsjog.cpp ACBP=28
 5123:0003 03A5 C=CODE   S=CNCSHOW_TEXT   G=(none) M=..\cncshow\cncshow.cpp ACBP=28
 515D:0008 07AC C=CODE   S=CNCSGSTR_TEXT  G=(none) M=..\cncshow\cncsgstr.cpp ACBP=28
 51D8:0004 0623 C=CODE   S=CNCSGSC_TEXT   G=(none) M=..\cncshow\cncsgsc.cpp ACBP=28
 523A:0007 0704 C=CODE   S=CNCSGEOM_TEXT  G=(none) M=..\cncshow\cncsgeom.cpp ACBP=28
 52AA:000B 0007 C=CODE   S=CNCSGDC_TEXT   G=(none) M=..\cncshow\cncsgdc.cpp ACBP=28
 52AB:0002 02BA C=CODE   S=CNCSFUN_TEXT   G=(none) M=..\cncshow\cncsfun.cpp ACBP=28
 52D6:000C 0B6F C=CODE   S=CNCSFSPR_TEXT  G=(none) M=..\cncshow\cncsfspr.cpp ACBP=28
 538D:000B 2063 C=CODE   S=CNCSFH_TEXT    G=(none) M=..\cncshow\cncsfh.cpp ACBP=28
 5593:000E 061E C=CODE   S=CNCSEDIT_TEXT  G=(none) M=..\cncshow\cncsedit.cpp ACBP=28
 55F5:000C 0AE7 C=CODE   S=CNCSDIAG_TEXT  G=(none) M=..\cncshow\cncsdiag.cpp ACBP=28
 56A4:0003 034A C=CODE   S=CNCSCWND_TEXT  G=(none) M=..\cncshow\cncscwnd.cpp ACBP=28
 56D8:000D 072D C=CODE   S=CNCSCR_TEXT    G=(none) M=..\cncshow\cncscr.cpp ACBP=28
 574B:000A 045A C=CODE   S=CNCSCMPR_TEXT  G=(none) M=..\cncshow\cncscmpr.cpp ACBP=28
 5791:0004 0485 C=CODE   S=CNCSBEG_TEXT   G=(none) M=..\cncshow\cncsbeg.cpp ACBP=28
 57D9:0009 0D76 C=CODE   S=CNCSAUTO_TEXT  G=(none) M=..\cncshow\cncsauto.cpp ACBP=28
 58B0:000F 0000 C=CODE   S=CNCUNPAC_TEXT  G=(none) M=..\cnccom\cncunpac.cpp ACBP=28
 58B0:000F 0000 C=CODE   S=CNCUN3_TEXT    G=(none) M=..\cnccom\cncun3.cpp ACBP=28
 58B0:000F 0000 C=CODE   S=CNCUN2_TEXT    G=(none) M=..\cnccom\cncun2.cpp ACBP=28
 58B0:000F 0000 C=CODE   S=CNCUN1_TEXT    G=(none) M=..\cnccom\cncun1.cpp ACBP=28
 58B0:000F 0BF6 C=CODE   S=CNCPAR_TEXT    G=(none) M=..\cnccom\cncpar.cpp ACBP=28
 5970:0005 0000 C=CODE   S=CNCINTF_TEXT   G=(none) M=..\cnccom\cncintf.cpp ACBP=28
 5970:0005 0000 C=CODE   S=CNCINTB_TEXT   G=(none) M=..\cnccom\cncintb.cpp ACBP=28
 5970:0005 0000 C=CODE   S=CNCINT_TEXT    G=(none) M=..\cnccom\cncint.cpp ACBP=28
 5970:0005 0000 C=CODE   S=CNCHARD_TEXT   G=(none) M=..\cnccom\cnchard.cpp ACBP=28
 5970:0005 00A7 C=CODE   S=CNCED_TEXT     G=(none) M=..\cnccom\cnced.cpp ACBP=28
 597A:000C 0000 C=CODE   S=CNCCSTAT_TEXT  G=(none) M=..\cnccom\cnccstat.cpp ACBP=28
 597B:0000 01E1 C=CODE   S=E87_PROG       G=(none) M=e87trap    ACBP=68
 597B:01F0 03D0 C=CODE   S=E87_PROG       G=(none) M=emu087     ACBP=68
 597B:05C0 0000 C=CODE   S=E87_PROG       G=(none) M=fp87init   ACBP=68
 59D7:0000 08C0 C=CODE   S=_TEXTA         G=(none)  M=ioststd    ACBP=28
 59D7:08C0 00AE C=CODE   S=_TEXTA         G=(none)  M=fsbclose   ACBP=28
 59D7:096E 016D C=CODE   S=_TEXTA         G=(none)  M=fsbctr1    ACBP=28
 59D7:0ADB 016E C=CODE   S=_TEXTA         G=(none)  M=fsbctr2    ACBP=28
 59D7:0C49 00F8 C=CODE   S=_TEXTA         G=(none)  M=fsbdtr     ACBP=28
 59D7:0D41 0150 C=CODE   S=_TEXTA         G=(none)  M=fsboflow   ACBP=28
 59D7:0E91 0167 C=CODE   S=_TEXTA         G=(none)  M=fsbopen    ACBP=28
 59D7:0FF8 00C5 C=CODE   S=_TEXTA         G=(none)  M=fsbsbuf    ACBP=28
 59D7:10BD 01B6 C=CODE   S=_TEXTA         G=(none)  M=fsbskoff   ACBP=28
 59D7:1273 01CA C=CODE   S=_TEXTA         G=(none)  M=fsbsync    ACBP=28
 59D7:143D 01BB C=CODE   S=_TEXTA         G=(none)  M=fsbuflow   ACBP=28
 59D7:15F8 01C1 C=CODE   S=_TEXTA         G=(none)  M=fsctr2     ACBP=28
 59D7:17B9 0186 C=CODE   S=_TEXTA         G=(none)  M=fsdtr      ACBP=28
 59D7:193F 006A C=CODE   S=_TEXTA         G=(none)  M=fsopen     ACBP=28
 59D7:19A9 0267 C=CODE   S=_TEXTA         G=(none)  M=ifsctr2    ACBP=28
 59D7:1C10 023E C=CODE   S=_TEXTA         G=(none)  M=ifsdtr     ACBP=28
 59D7:1E4E 0024 C=CODE   S=_TEXTA         G=(none)  M=istasn2    ACBP=28
 59D7:1E72 011F C=CODE   S=_TEXTA         G=(none)  M=istctr1    ACBP=28
 59D7:1F91 015D C=CODE   S=_TEXTA         G=(none)  M=istctr4    ACBP=28
 59D7:20EE 0102 C=CODE   S=_TEXTA         G=(none)  M=istdipfx   ACBP=28
 59D7:21F0 00E8 C=CODE   S=_TEXTA         G=(none)  M=istdtr1    ACBP=28
 59D7:22D8 014F C=CODE   S=_TEXTA         G=(none)  M=istdtr2    ACBP=28
 59D7:2427 00AD C=CODE   S=_TEXTA         G=(none)  M=isteatwh   ACBP=28
 59D7:24D4 003E C=CODE   S=_TEXTA         G=(none)  M=isteint    ACBP=28
 59D7:2512 050D C=CODE   S=_TEXTA         G=(none)  M=istelng    ACBP=28
 59D7:2A1F 00E8 C=CODE   S=_TEXTA         G=(none)  M=istread    ACBP=28
 59D7:2B07 0030 C=CODE   S=_TEXTA         G=(none)  M=ostasn2    ACBP=28
 59D7:2B37 0119 C=CODE   S=_TEXTA         G=(none)  M=ostctr1    ACBP=28
 59D7:2C50 015D C=CODE   S=_TEXTA         G=(none)  M=ostctr3    ACBP=28
 59D7:2DAD 0112 C=CODE   S=_TEXTA         G=(none)  M=ostdtr1    ACBP=28
 59D7:2EBF 014F C=CODE   S=_TEXTA         G=(none)  M=ostdtr2    ACBP=28
 59D7:300E 004C C=CODE   S=_TEXTA         G=(none)  M=ostflush   ACBP=28
 59D7:305A 0386 C=CODE   S=_TEXTA         G=(none)  M=ostint     ACBP=28
 59D7:33E0 0043 C=CODE   S=_TEXTA         G=(none)  M=ostopfx    ACBP=28
 59D7:3423 0058 C=CODE   S=_TEXTA         G=(none)  M=ostosfx    ACBP=28
 59D7:347B 02F8 C=CODE   S=_TEXTA         G=(none)  M=ostoutst   ACBP=28
 59D7:3773 0054 C=CODE   S=_TEXTA         G=(none)  M=ostwrite   ACBP=28
 59D7:37C7 004D C=CODE   S=_TEXTA         G=(none)  M=stbalc     ACBP=28
 59D7:3814 00ED C=CODE   S=_TEXTA         G=(none)  M=stbctr1    ACBP=28
 59D7:3901 0030 C=CODE   S=_TEXTA         G=(none)  M=stbdnext   ACBP=28
 59D7:3931 00B8 C=CODE   S=_TEXTA         G=(none)  M=stbdsgtn   ACBP=28
 59D7:39E9 00A8 C=CODE   S=_TEXTA         G=(none)  M=stbdsptn   ACBP=28
 59D7:3A91 0091 C=CODE   S=_TEXTA         G=(none)  M=stbdtr     ACBP=28
 59D7:3B22 0008 C=CODE   S=_TEXTA         G=(none)  M=stboflow   ACBP=28
 59D7:3B2A 0008 C=CODE   S=_TEXTA         G=(none)  M=stbpbfl    ACBP=28
 59D7:3B32 0030 C=CODE   S=_TEXTA         G=(none)  M=stbsbuf    ACBP=28
 59D7:3B62 00B0 C=CODE   S=_TEXTA         G=(none)  M=stbsetb    ACBP=28
 59D7:3C12 006B C=CODE   S=_TEXTA         G=(none)  M=stbsetg    ACBP=28
 59D7:3C7D 0050 C=CODE   S=_TEXTA         G=(none)  M=stbsetp    ACBP=28
 59D7:3CCD 000B C=CODE   S=_TEXTA         G=(none)  M=stbskoff   ACBP=28
 59D7:3CD8 0027 C=CODE   S=_TEXTA         G=(none)  M=stbskpos   ACBP=28
 59D7:3CFF 0074 C=CODE   S=_TEXTA         G=(none)  M=stbsputn   ACBP=28
 59D7:3D73 0050 C=CODE   S=_TEXTA         G=(none)  M=stbsync    ACBP=28
 59D7:3DC3 0037 C=CODE   S=_TEXTA         G=(none)  M=stbuflow   ACBP=28
 59D7:3DFA 003E C=CODE   S=_TEXTA         G=(none)  M=stclear    ACBP=28
 59D7:3E38 008D C=CODE   S=_TEXTA         G=(none)  M=stctr1     ACBP=28
 59D7:3EC5 018E C=CODE   S=_TEXTA         G=(none)  M=stdtr      ACBP=28
 59D7:4053 0060 C=CODE   S=_TEXTA         G=(none)  M=stinit     ACBP=28
 59D7:40B3 00C7 C=CODE   S=_TEXTA         G=(none)  M=stsetf1    ACBP=28
 59D7:417A 0030 C=CODE   S=_TEXTA         G=(none)  M=stsetst    ACBP=28
 59D7:41AA 006E C=CODE   S=_TEXTA         G=(none)  M=sttie      ACBP=28
 5DF8:0008 00E9 C=CODE   S=_TEXTC         G=(none)  M=ctor2      ACBP=28
 5DF8:00F1 021C C=CODE   S=_TEXTC         G=(none)  M=ctor3      ACBP=28
 5DF8:030D 0949 C=CODE   S=_TEXTC         G=(none)  M=strings    ACBP=28
 5EBE:0000 0000 C=FAR_DATA S=_FARDATA       G=(none) M=c0.asm     ACBP=68
 5EBE:0000 1F40 C=FAR_DATA S=CNCDRCH5_DATA  G=(none) M=..\cncdrc\cncdrch.cpp ACBP=68
 60B2:0000 1000 C=FAR_DATA S=CNCUN15_DATA   G=(none) M=..\cnccom\cncun1.cpp ACBP=68
 61B2:0000 2C83 C=FAR_DATA S=CNCPAR5_DATA   G=(none) M=..\cnccom\cncpar.cpp ACBP=68
 647B:0000 0000 C=FAR_BSS S=_FARBSS        G=(none) M=c0.asm     ACBP=68
 647B:0000 0000 C=OVRINFO S=_OVERLAY_      G=(none) M=c0.asm     ACBP=68
 647B:0000 0000 C=STUBSEG S=_1STUB_        G=(none) M=c0.asm     ACBP=68
 647B:0000 0090 C=DATA   S=_DATA          G=DGROUP  M=c0.asm     ACBP=68
 647B:0090 0000 C=DATA   S=_DATA          G=DGROUP  M=..\cncdrc\cnciposs.cpp ACBP=48
 647B:0090 0000 C=DATA   S=_DATA          G=DGROUP  M=..\cnccom\cnciopar.cpp ACBP=48
 647B:0090 0000 C=DATA   S=_DATA          G=DGROUP  M=..\cncdrc\cncdrch.cpp ACBP=48
 647B:0090 0000 C=DATA   S=_DATA          G=DGROUP  M=..\cnccom\cnccsti.cpp ACBP=48
 647B:0090 0000 C=DATA   S=_DATA          G=DGROUP  M=cncotl.cpp ACBP=48
 647B:0090 04C4 C=DATA   S=_DATA          G=DGROUP  M=..\cncshow\cncsted.cpp ACBP=48
 647B:0554 0008 C=DATA   S=_DATA          G=DGROUP  M=..\cncunpac\cncuzsm.cpp ACBP=48
 647B:055C 0000 C=DATA   S=_DATA          G=DGROUP  M=..\cncunpac\cncuzero.cpp ACBP=48
 647B:055C 000C C=DATA   S=_DATA          G=DGROUP  M=..\cncunpac\cncuzcp.cpp ACBP=48
 647B:0568 0014 C=DATA   S=_DATA          G=DGROUP  M=..\cncunpac\cncuwkp.cpp ACBP=48
 647B:057C 0000 C=DATA   S=_DATA          G=DGROUP  M=..\cncunpac\cncuwerr.cpp ACBP=48
 647B:057C 0000 C=DATA   S=_DATA          G=DGROUP  M=..\cncunpac\cncusim.cpp ACBP=48
 647B:057C 0030 C=DATA   S=_DATA          G=DGROUP  M=..\cncunpac\cncur_pr.cpp ACBP=48
 647B:05AC 000E C=DATA   S=_DATA          G=DGROUP  M=..\cncunpac\cncunums.cpp ACBP=48
 647B:05BA 0056 C=DATA   S=_DATA          G=DGROUP  M=..\cncunpac\cncunumf.cpp ACBP=48
 647B:0610 0000 C=DATA   S=_DATA          G=DGROUP  M=..\cncunpac\cncunul.cpp ACBP=48
 647B:0610 000E C=DATA   S=_DATA          G=DGROUP  M=..\cncunpac\cncunp3.cpp ACBP=48
 647B:061E 000C C=DATA   S=_DATA          G=DGROUP  M=..\cncunpac\cncunp2.cpp ACBP=48
 647B:062A 000F C=DATA   S=_DATA          G=DGROUP  M=..\cncunpac\cncunp1.cpp ACBP=48
 647B:063A 0014 C=DATA   S=_DATA          G=DGROUP  M=..\cncunpac\cncuintf.cpp ACBP=48
 647B:064E 0020 C=DATA   S=_DATA          G=DGROUP  M=..\cncunpac\cncugran.cpp ACBP=48
 647B:066E 0008 C=DATA   S=_DATA          G=DGROUP  M=..\cncunpac\cncugr4.cpp ACBP=48
 647B:0676 0020 C=DATA   S=_DATA          G=DGROUP  M=..\cncunpac\cncuform.cpp ACBP=48
 647B:0696 0040 C=DATA   S=_DATA          G=DGROUP  M=..\cncunpac\cncufom.cpp ACBP=48
 647B:06D6 0000 C=DATA   S=_DATA          G=DGROUP  M=..\cncunpac\cncufnum.cpp ACBP=48
 647B:06D6 0000 C=DATA   S=_DATA          G=DGROUP  M=..\cncunpac\cncufnm.cpp ACBP=48
 647B:06D6 0010 C=DATA   S=_DATA          G=DGROUP  M=..\cncunpac\cncuends.cpp ACBP=48
 647B:06E6 0000 C=DATA   S=_DATA          G=DGROUP  M=..\cncunpac\cncuasim.cpp ACBP=48
 647B:06E6 0028 C=DATA   S=_DATA          G=DGROUP  M=..\cncunpac\cncuana.cpp ACBP=48
 647B:070E 0000 C=DATA   S=_DATA          G=DGROUP  M=..\cnctime\cnctszr.cpp ACBP=48
 647B:070E 0000 C=DATA   S=_DATA          G=DGROUP  M=..\cnctime\cnctstp.cpp ACBP=48
 647B:070E 0000 C=DATA   S=_DATA          G=DGROUP  M=..\cnctime\cnctsm.cpp ACBP=48
 647B:070E 0000 C=DATA   S=_DATA          G=DGROUP  M=..\cnctime\cnctrpr.cpp ACBP=48
 647B:070E 0004 C=DATA   S=_DATA          G=DGROUP  M=..\cnctime\cnctres.cpp ACBP=48
 647B:0712 0000 C=DATA   S=_DATA          G=DGROUP  M=..\cnctime\cnctrc2.cpp ACBP=48
 647B:0712 0000 C=DATA   S=_DATA          G=DGROUP  M=..\cnctime\cnctrc1.cpp ACBP=48
 647B:0712 0000 C=DATA   S=_DATA          G=DGROUP  M=..\cnctime\cnctpoin.cpp ACBP=48
 647B:0712 0000 C=DATA   S=_DATA          G=DGROUP  M=..\cnctime\cnctmm.cpp ACBP=48
 647B:0712 0002 C=DATA   S=_DATA          G=DGROUP  M=..\cnctime\cnctmfun.cpp ACBP=48
 647B:0714 0000 C=DATA   S=_DATA          G=DGROUP  M=..\cnctime\cnctio.cpp ACBP=48
 647B:0714 0004 C=DATA   S=_DATA          G=DGROUP  M=..\cnctime\cnctinfm.cpp ACBP=48
 647B:0718 0000 C=DATA   S=_DATA          G=DGROUP  M=..\cnctime\cnctcom1.cpp ACBP=48
 647B:0718 0000 C=DATA   S=_DATA          G=DGROUP  M=..\cnctime\cnctcm.cpp ACBP=48
 647B:0718 0000 C=DATA   S=_DATA          G=DGROUP  M=..\cnctime\cnctbgn.cpp ACBP=48
 647B:0718 0004 C=DATA   S=_DATA          G=DGROUP  M=..\cncserr\zapic.cpp ACBP=48
 647B:071C 0000 C=DATA   S=_DATA          G=DGROUP  M=..\cncserr\ob_out.cpp ACBP=48
 647B:071C 0002 C=DATA   S=_DATA          G=DGROUP  M=..\cncserr\ob_kon2.cpp ACBP=48
 647B:071E 0002 C=DATA   S=_DATA          G=DGROUP  M=..\cncserr\ob_kon.cpp ACBP=48
 647B:0720 0000 C=DATA   S=_DATA          G=DGROUP  M=..\cncserr\ob_in.cpp ACBP=48
 647B:0720 0002 C=DATA   S=_DATA          G=DGROUP  M=..\cncserr\mistake.cpp ACBP=48
 647B:0722 000B C=DATA   S=_DATA          G=DGROUP  M=..\cncserr\glav.cpp ACBP=48
 647B:072E 000B C=DATA   S=_DATA          G=DGROUP  M=..\cncserr\diag.cpp ACBP=48
 647B:073A 0014 C=DATA   S=_DATA          G=DGROUP  M=..\cncserr\avtoyp.cpp ACBP=48
 647B:074E 0004 C=DATA   S=_DATA          G=DGROUP  M=..\cncdrv\cncisref.cpp ACBP=48
 647B:0752 0000 C=DATA   S=_DATA          G=DGROUP  M=..\cncdrv\cncispoz.cpp ACBP=48
 647B:0752 0000 C=DATA   S=_DATA          G=DGROUP  M=..\cncdrv\cncires.cpp ACBP=48
 647B:0752 0000 C=DATA   S=_DATA          G=DGROUP  M=..\cncdrv\cncieoks.cpp ACBP=48
 647B:0752 0030 C=DATA   S=_DATA          G=DGROUP  M=..\cncdrv\cncicrfn.cpp ACBP=48
 647B:0782 0008 C=DATA   S=_DATA          G=DGROUP  M=..\cncci\cncciuna.cpp ACBP=48
 647B:078A 0008 C=DATA   S=_DATA          G=DGROUP  M=..\cncci\cnccisvl.cpp ACBP=48
 647B:0792 000E C=DATA   S=_DATA          G=DGROUP  M=..\cncci\cnccism0.cpp ACBP=48
 647B:07A0 0008 C=DATA   S=_DATA          G=DGROUP  M=..\cncci\cnccirnd.cpp ACBP=48
 647B:07A8 0024 C=DATA   S=_DATA          G=DGROUP  M=..\cncci\cnccirnc.cpp ACBP=48
 647B:07CC 0004 C=DATA   S=_DATA          G=DGROUP  M=..\cncci\cnccirds.cpp ACBP=48
 647B:07D0 0008 C=DATA   S=_DATA          G=DGROUP  M=..\cncci\cnccipol.cpp ACBP=48
 647B:07D8 002C C=DATA   S=_DATA          G=DGROUP  M=..\cncci\cnccimrr.cpp ACBP=48
 647B:0804 002C C=DATA   S=_DATA          G=DGROUP  M=..\cncci\cnccill.cpp ACBP=48
 647B:0830 004C C=DATA   S=_DATA          G=DGROUP  M=..\cncci\cnccikrg.cpp ACBP=48
 647B:087C 000C C=DATA   S=_DATA          G=DGROUP  M=..\cncci\cnccikcn.cpp ACBP=48
 647B:0888 0040 C=DATA   S=_DATA          G=DGROUP  M=..\cncci\cncciinp.cpp ACBP=48
 647B:08C8 001C C=DATA   S=_DATA          G=DGROUP  M=..\cncci\cnccieqv.cpp ACBP=48
 647B:08E4 0008 C=DATA   S=_DATA          G=DGROUP  M=..\cncci\cnccict.cpp ACBP=48
 647B:08EC 0040 C=DATA   S=_DATA          G=DGROUP  M=..\cncci\cnccicrs.cpp ACBP=48
 647B:092C 0000 C=DATA   S=_DATA          G=DGROUP  M=..\cnccamp\cncctok.cpp ACBP=48
 647B:092C 0000 C=DATA   S=_DATA          G=DGROUP  M=..\cnccamp\cnccstr.cpp ACBP=48
 647B:092C 0020 C=DATA   S=_DATA          G=DGROUP  M=..\cnccamp\cnccrrdp.cpp ACBP=48
 647B:094C 0000 C=DATA   S=_DATA          G=DGROUP  M=..\cnccamp\cnccrm.cpp ACBP=48
 647B:094C 0000 C=DATA   S=_DATA          G=DGROUP  M=..\cnccamp\cnccref.cpp ACBP=48
 647B:094C 0000 C=DATA   S=_DATA          G=DGROUP  M=..\cnccamp\cnccoutk.cpp ACBP=48
 647B:094C 0004 C=DATA   S=_DATA          G=DGROUP  M=..\cnccamp\cnccman.cpp ACBP=48
 647B:0950 0010 C=DATA   S=_DATA          G=DGROUP  M=..\cnccamp\cnccfrs.cpp ACBP=48
 647B:0960 0000 C=DATA   S=_DATA          G=DGROUP  M=..\cnccamp\cnccauto.cpp ACBP=48
 647B:0960 0000 C=DATA   S=_DATA          G=DGROUP  M=..\cncdrc\cncxupr.cpp ACBP=48
 647B:0960 0000 C=DATA   S=_DATA          G=DGROUP  M=..\cncdrc\cnctend.cpp ACBP=48
 647B:0960 0000 C=DATA   S=_DATA          G=DGROUP  M=..\cncdrc\cnctcom2.cpp ACBP=48
 647B:0960 0000 C=DATA   S=_DATA          G=DGROUP  M=..\cncdrc\cncsupr.cpp ACBP=48
 647B:0960 0000 C=DATA   S=_DATA          G=DGROUP  M=..\cncdrc\cncmup.cpp ACBP=48
 647B:0960 0004 C=DATA   S=_DATA          G=DGROUP  M=..\cncdrc\cnciref.cpp ACBP=48
 647B:0964 0000 C=DATA   S=_DATA          G=DGROUP  M=..\cncdrc\cncipos.cpp ACBP=48
 647B:0964 0000 C=DATA   S=_DATA          G=DGROUP  M=..\cncdrc\cncilin.cpp ACBP=48
 647B:0964 0000 C=DATA   S=_DATA          G=DGROUP  M=..\cncdrc\cncieok.cpp ACBP=48
 647B:0964 0000 C=DATA   S=_DATA          G=DGROUP  M=..\cncdrc\cnciax.cpp ACBP=48
 647B:0964 0008 C=DATA   S=_DATA          G=DGROUP  M=..\cncdrc\cncdtime.cpp ACBP=48
 647B:096C 0000 C=DATA   S=_DATA          G=DGROUP  M=..\cncdrc\cncdrc.cpp ACBP=48
 647B:096C 0020 C=DATA   S=_DATA          G=DGROUP  M=..\cncdrc\cncdcap.cpp ACBP=48
 647B:098C 0000 C=DATA   S=_DATA          G=DGROUP  M=..\cncdrc\cnccamp.cpp ACBP=48
 647B:098C 0001 C=DATA   S=_DATA          G=DGROUP  M=..\cncshow\cnctedi.cpp ACBP=48
 647B:098E 001C C=DATA   S=_DATA          G=DGROUP  M=..\cncshow\cncsvar.cpp ACBP=48
 647B:09AA 0000 C=DATA   S=_DATA          G=DGROUP  M=..\cncshow\cncstio.cpp ACBP=48
 647B:09AA 0019 C=DATA   S=_DATA          G=DGROUP  M=..\cncshow\cncstedc.cpp ACBP=48
 647B:09C4 0000 C=DATA   S=_DATA          G=DGROUP  M=..\cncshow\cncsrmsg.cpp ACBP=48
 647B:09C4 0000 C=DATA   S=_DATA          G=DGROUP  M=..\cncshow\cncsman.cpp ACBP=48
 647B:09C4 0000 C=DATA   S=_DATA          G=DGROUP  M=..\cncshow\cncskor.cpp ACBP=48
 647B:09C4 0000 C=DATA   S=_DATA          G=DGROUP  M=..\cncshow\cncsjog.cpp ACBP=48
 647B:09C4 0001 C=DATA   S=_DATA          G=DGROUP  M=..\cncshow\cncshow.cpp ACBP=48
 647B:09C6 0001 C=DATA   S=_DATA          G=DGROUP  M=..\cncshow\cncsgstr.cpp ACBP=48
 647B:09C8 0000 C=DATA   S=_DATA          G=DGROUP  M=..\cncshow\cncsgsc.cpp ACBP=48
 647B:09C8 005F C=DATA   S=_DATA          G=DGROUP  M=..\cncshow\cncsgeom.cpp ACBP=48
 647B:0A28 0000 C=DATA   S=_DATA          G=DGROUP  M=..\cncshow\cncsgdc.cpp ACBP=48
 647B:0A28 0000 C=DATA   S=_DATA          G=DGROUP  M=..\cncshow\cncsfun.cpp ACBP=48
 647B:0A28 003E C=DATA   S=_DATA          G=DGROUP  M=..\cncshow\cncsfspr.cpp ACBP=48
 647B:0A66 0025 C=DATA   S=_DATA          G=DGROUP  M=..\cncshow\cncsfh.cpp ACBP=48
 647B:0A8C 0000 C=DATA   S=_DATA          G=DGROUP  M=..\cncshow\cncsedit.cpp ACBP=48
 647B:0A8C 0000 C=DATA   S=_DATA          G=DGROUP  M=..\cncshow\cncsdiag.cpp ACBP=48
 647B:0A8C 0000 C=DATA   S=_DATA          G=DGROUP  M=..\cncshow\cncscwnd.cpp ACBP=48
 647B:0A8C 0015 C=DATA   S=_DATA          G=DGROUP  M=..\cncshow\cncscr.cpp ACBP=48
 647B:0AA2 000C C=DATA   S=_DATA          G=DGROUP  M=..\cncshow\cncscmpr.cpp ACBP=48
 647B:0AAE 0000 C=DATA   S=_DATA          G=DGROUP  M=..\cncshow\cncsbeg.cpp ACBP=48
 647B:0AAE 0002 C=DATA   S=_DATA          G=DGROUP  M=..\cncshow\cncsauto.cpp ACBP=48
 647B:0AB0 0000 C=DATA   S=_DATA          G=DGROUP  M=..\cnccom\cncunpac.cpp ACBP=48
 647B:0AB0 0000 C=DATA   S=_DATA          G=DGROUP  M=..\cnccom\cncun3.cpp ACBP=48
 647B:0AB0 0004 C=DATA   S=_DATA          G=DGROUP  M=..\cnccom\cncun2.cpp ACBP=48
 647B:0AB4 007E C=DATA   S=_DATA          G=DGROUP  M=..\cnccom\cncun1.cpp ACBP=48
 647B:0B32 005E C=DATA   S=_DATA          G=DGROUP  M=..\cnccom\cncpar.cpp ACBP=48
 647B:0B90 0000 C=DATA   S=_DATA          G=DGROUP  M=..\cnccom\cncintf.cpp ACBP=48
 647B:0B90 0000 C=DATA   S=_DATA          G=DGROUP  M=..\cnccom\cncintb.cpp ACBP=48
 647B:0B90 0009 C=DATA   S=_DATA          G=DGROUP  M=..\cnccom\cncint.cpp ACBP=48
 647B:0B9A 0068 C=DATA   S=_DATA          G=DGROUP  M=..\cnccom\cnchard.cpp ACBP=48
 647B:0C02 0024 C=DATA   S=_DATA          G=DGROUP  M=..\cnccom\cnced.cpp ACBP=48
 647B:0C26 0030 C=DATA   S=_DATA          G=DGROUP  M=..\cnccom\cnccstat.cpp ACBP=48
 647B:0C56 0002 C=DATA   S=_DATA          G=DGROUP  M=deflt87    ACBP=48
 647B:0C58 0004 C=DATA   S=_DATA          G=DGROUP  M=protflag   ACBP=48
 647B:0C60 0000 C=DATA   S=_DATA          G=DGROUP  M=e87trap    ACBP=68
 647B:0C60 0002 C=DATA   S=_DATA          G=DGROUP  M=fp87init   ACBP=68
 647B:0C62 0000 C=DATA   S=_DATA          G=DGROUP  M=atof       ACBP=48
 647B:0C62 0000 C=DATA   S=_DATA          G=DGROUP  M=efcvt      ACBP=48
 647B:0C62 003A C=DATA   S=_DATA          G=DGROUP  M=hugeval    ACBP=48
 647B:0C9C 0043 C=DATA   S=_DATA          G=DGROUP  M=mathwhy    ACBP=48
 647B:0CE0 0000 C=DATA   S=_DATA          G=DGROUP  M=strtod     ACBP=48
 647B:0CE0 0000 C=DATA   S=_DATA          G=DGROUP  M=atan       ACBP=48
 647B:0CE0 0000 C=DATA   S=_DATA          G=DGROUP  M=fabs       ACBP=48
 647B:0CE0 0000 C=DATA   S=_DATA          G=DGROUP  M=ldtrunc    ACBP=48
 647B:0CE0 0000 C=DATA   S=_DATA          G=DGROUP  M=realcvt2   ACBP=48
 647B:0CE0 0000 C=DATA   S=_DATA          G=DGROUP  M=round      ACBP=48
 647B:0CE0 0018 C=DATA   S=_DATA          G=DGROUP  M=scantod2   ACBP=48
 647B:0CF8 0000 C=DATA   S=_DATA          G=DGROUP  M=xcvt       ACBP=48
 647B:0CF8 0000 C=DATA   S=_DATA          G=DGROUP  M=matherr    ACBP=48
 647B:0CF8 0000 C=DATA   S=_DATA          G=DGROUP  M=pow10d     ACBP=48
 647B:0CF8 000E C=DATA   S=_DATA          G=DGROUP  M=_matherr   ACBP=48
 647B:0D06 000C C=DATA   S=_DATA          G=DGROUP  M=cos        ACBP=48
 647B:0D12 0000 C=DATA   S=_DATA          G=DGROUP  M=modf       ACBP=48
 647B:0D12 0010 C=DATA   S=_DATA          G=DGROUP  M=pow        ACBP=48
 647B:0D22 000C C=DATA   S=_DATA          G=DGROUP  M=sin        ACBP=48
 647B:0D2E 000D C=DATA   S=_DATA          G=DGROUP  M=sqrt       ACBP=48
 647B:0D3C 000C C=DATA   S=_DATA          G=DGROUP  M=tan        ACBP=48
 647B:0D48 0080 C=DATA   S=_DATA          G=DGROUP  M=_pow10     ACBP=48
 647B:0DC8 009A C=DATA   S=_DATA          G=DGROUP  M=fperr      ACBP=48
 647B:0E62 0000 C=DATA   S=_DATA          G=DGROUP  M=fftol      ACBP=48
 647B:0E62 0000 C=DATA   S=_DATA          G=DGROUP  M=bioscom    ACBP=48
 647B:0E62 0002 C=DATA   S=_DATA          G=DGROUP  M=wscroll    ACBP=48
 647B:0E64 0000 C=DATA   S=_DATA          G=DGROUP  M=vram       ACBP=48
 647B:0E64 0000 C=DATA   S=_DATA          G=DGROUP  M=clreol     ACBP=48
 647B:0E64 0000 C=DATA   S=_DATA          G=DGROUP  M=clrscr     ACBP=48
 647B:0E64 0000 C=DATA   S=_DATA          G=DGROUP  M=color      ACBP=48
 647B:0E64 0000 C=DATA   S=_DATA          G=DGROUP  M=cprintf    ACBP=48
 647B:0E64 0000 C=DATA   S=_DATA          G=DGROUP  M=cputs      ACBP=48
 647B:0E64 0000 C=DATA   S=_DATA          G=DGROUP  M=cursor     ACBP=48
 647B:0E64 0000 C=DATA   S=_DATA          G=DGROUP  M=gotoxy     ACBP=48
 647B:0E64 0000 C=DATA   S=_DATA          G=DGROUP  M=gptext     ACBP=48
 647B:0E64 0000 C=DATA   S=_DATA          G=DGROUP  M=movetext   ACBP=48
 647B:0E64 0000 C=DATA   S=_DATA          G=DGROUP  M=putch      ACBP=48
 647B:0E64 0000 C=DATA   S=_DATA          G=DGROUP  M=screen     ACBP=48
 647B:0E64 0000 C=DATA   S=_DATA          G=DGROUP  M=scroll     ACBP=48
 647B:0E64 0000 C=DATA   S=_DATA          G=DGROUP  M=textmode   ACBP=48
 647B:0E64 0000 C=DATA   S=_DATA          G=DGROUP  M=vidinfo    ACBP=48
 647B:0E64 0000 C=DATA   S=_DATA          G=DGROUP  M=wherexy    ACBP=48
 647B:0E64 0000 C=DATA   S=_DATA          G=DGROUP  M=window     ACBP=48
 647B:0E64 0019 C=DATA   S=_DATA          G=DGROUP  M=crtinit    ACBP=48
 647B:0E7E 0000 C=DATA   S=_DATA          G=DGROUP  M=getch      ACBP=48
 647B:0E7E 0002 C=DATA   S=_DATA          G=DGROUP  M=kbhit      ACBP=48
 647B:0E80 0000 C=DATA   S=_DATA          G=DGROUP  M=_stpcpy    ACBP=48
 647B:0E80 0000 C=DATA   S=_DATA          G=DGROUP  M=strpbrk    ACBP=48
 647B:0E80 0000 C=DATA   S=_DATA          G=DGROUP  M=memcmp     ACBP=48
 647B:0E80 0000 C=DATA   S=_DATA          G=DGROUP  M=memcpy     ACBP=48
 647B:0E80 0000 C=DATA   S=_DATA          G=DGROUP  M=memset     ACBP=48
 647B:0E80 0000 C=DATA   S=_DATA          G=DGROUP  M=movmem     ACBP=48
 647B:0E80 0000 C=DATA   S=_DATA          G=DGROUP  M=strcat     ACBP=48
 647B:0E80 0000 C=DATA   S=_DATA          G=DGROUP  M=strcmp     ACBP=48
 647B:0E80 0000 C=DATA   S=_DATA          G=DGROUP  M=strcpy     ACBP=48
 647B:0E80 0000 C=DATA   S=_DATA          G=DGROUP  M=strlen     ACBP=48
 647B:0E80 0000 C=DATA   S=_DATA          G=DGROUP  M=strncpy    ACBP=48
 647B:0E80 0000 C=DATA   S=_DATA          G=DGROUP  M=strrev     ACBP=48
 647B:0E80 0000 C=DATA   S=_DATA          G=DGROUP  M=strstr     ACBP=48
 647B:0E80 03E8 C=DATA   S=_DATA          G=DGROUP  M=files      ACBP=48
 647B:1268 0066 C=DATA   S=_DATA          G=DGROUP  M=files2     ACBP=48
 647B:12CE 0004 C=DATA   S=_DATA          G=DGROUP  M=fmode      ACBP=48
 647B:12D2 0009 C=DATA   S=_DATA          G=DGROUP  M=mkname     ACBP=48
 647B:12DC 0000 C=DATA   S=_DATA          G=DGROUP  M=setupio    ACBP=48
 647B:12DC 0000 C=DATA   S=_DATA          G=DGROUP  M=xclose     ACBP=48
 647B:12DC 005B C=DATA   S=_DATA          G=DGROUP  M=ioerror    ACBP=48
 647B:1338 0000 C=DATA   S=_DATA          G=DGROUP  M=isatty     ACBP=48
 647B:1338 0000 C=DATA   S=_DATA          G=DGROUP  M=lseek      ACBP=48
 647B:1338 0000 C=DATA   S=_DATA          G=DGROUP  M=reada      ACBP=48
 647B:1338 0080 C=DATA   S=_DATA          G=DGROUP  M=scanner    ACBP=48
 647B:13B8 0000 C=DATA   S=_DATA          G=DGROUP  M=unlink     ACBP=48
 647B:13B8 0067 C=DATA   S=_DATA          G=DGROUP  M=vprinter   ACBP=48
 647B:1420 0000 C=DATA   S=_DATA          G=DGROUP  M=readu      ACBP=48
 647B:1420 0000 C=DATA   S=_DATA          G=DGROUP  M=writeu     ACBP=48
 647B:1420 0000 C=DATA   S=_DATA          G=DGROUP  M=access     ACBP=48
 647B:1420 0000 C=DATA   S=_DATA          G=DGROUP  M=chmod      ACBP=48
 647B:1420 0000 C=DATA   S=_DATA          G=DGROUP  M=close      ACBP=48
 647B:1420 0000 C=DATA   S=_DATA          G=DGROUP  M=fclose     ACBP=48
 647B:1420 0000 C=DATA   S=_DATA          G=DGROUP  M=fflush     ACBP=48
 647B:1420 0000 C=DATA   S=_DATA          G=DGROUP  M=fgets      ACBP=48
 647B:1420 0000 C=DATA   S=_DATA          G=DGROUP  M=flushall   ACBP=48
 647B:1420 0000 C=DATA   S=_DATA          G=DGROUP  M=flushout   ACBP=48
 647B:1420 0000 C=DATA   S=_DATA          G=DGROUP  M=fnmerge    ACBP=48
 647B:1420 0000 C=DATA   S=_DATA          G=DGROUP  M=fnsplit    ACBP=48
 647B:1420 0000 C=DATA   S=_DATA          G=DGROUP  M=fopen      ACBP=48
 647B:1420 0000 C=DATA   S=_DATA          G=DGROUP  M=fprintf    ACBP=48
 647B:1420 0000 C=DATA   S=_DATA          G=DGROUP  M=fputs      ACBP=48
 647B:1420 0000 C=DATA   S=_DATA          G=DGROUP  M=fscanf     ACBP=48
 647B:1420 0000 C=DATA   S=_DATA          G=DGROUP  M=fseek      ACBP=48
 647B:1420 0000 C=DATA   S=_DATA          G=DGROUP  M=makepath   ACBP=48
 647B:1420 02D0 C=DATA   S=_DATA          G=DGROUP  M=perror     ACBP=48
 647B:16F0 0001 C=DATA   S=_DATA          G=DGROUP  M=putc       ACBP=48
 647B:16F2 0004 C=DATA   S=_DATA          G=DGROUP  M=setvbuf    ACBP=48
 647B:16F6 0000 C=DATA   S=_DATA          G=DGROUP  M=splitpth   ACBP=48
 647B:16F6 0000 C=DATA   S=_DATA          G=DGROUP  M=sprintf    ACBP=48
 647B:16F6 0000 C=DATA   S=_DATA          G=DGROUP  M=sscanf     ACBP=48
 647B:16F6 0000 C=DATA   S=_DATA          G=DGROUP  M=write      ACBP=48
 647B:16F6 0000 C=DATA   S=_DATA          G=DGROUP  M=xfclose    ACBP=48
 647B:16F6 0000 C=DATA   S=_DATA          G=DGROUP  M=xfflush    ACBP=48
 647B:16F6 0000 C=DATA   S=_DATA          G=DGROUP  M=_access    ACBP=48
 647B:16F6 0000 C=DATA   S=_DATA          G=DGROUP  M=chmoda     ACBP=48
 647B:16F6 0000 C=DATA   S=_DATA          G=DGROUP  M=closea     ACBP=48
 647B:16F6 0000 C=DATA   S=_DATA          G=DGROUP  M=eof        ACBP=48
 647B:16F6 0000 C=DATA   S=_DATA          G=DGROUP  M=findfirs   ACBP=48
 647B:16F6 0000 C=DATA   S=_DATA          G=DGROUP  M=getc       ACBP=48
 647B:16F6 0000 C=DATA   S=_DATA          G=DGROUP  M=open       ACBP=48
 647B:16F6 0000 C=DATA   S=_DATA          G=DGROUP  M=opena      ACBP=48
 647B:16F6 0000 C=DATA   S=_DATA          G=DGROUP  M=read       ACBP=48
 647B:16F6 0000 C=DATA   S=_DATA          G=DGROUP  M=rename     ACBP=48
 647B:16F6 0000 C=DATA   S=_DATA          G=DGROUP  M=ungetc     ACBP=48
 647B:16F6 0000 C=DATA   S=_DATA          G=DGROUP  M=writea     ACBP=48
 647B:16F6 0000 C=DATA   S=_DATA          G=DGROUP  M=ioctl      ACBP=48
 647B:16F6 0000 C=DATA   S=_DATA          G=DGROUP  M=ioststd    ACBP=48
 647B:16F6 0000 C=DATA   S=_DATA          G=DGROUP  M=fsbclose   ACBP=48
 647B:16F6 0034 C=DATA   S=_DATA          G=DGROUP  M=fsbctr1    ACBP=48
 647B:172A 0034 C=DATA   S=_DATA          G=DGROUP  M=fsbctr2    ACBP=48
 647B:175E 0036 C=DATA   S=_DATA          G=DGROUP  M=fsbdtr     ACBP=48
 647B:1794 0000 C=DATA   S=_DATA          G=DGROUP  M=fsboflow   ACBP=48
 647B:1794 0000 C=DATA   S=_DATA          G=DGROUP  M=fsbopen    ACBP=48
 647B:1794 0000 C=DATA   S=_DATA          G=DGROUP  M=fsbsbuf    ACBP=48
 647B:1794 0000 C=DATA   S=_DATA          G=DGROUP  M=fsbskoff   ACBP=48
 647B:1794 0000 C=DATA   S=_DATA          G=DGROUP  M=fsbsync    ACBP=48
 647B:1794 0000 C=DATA   S=_DATA          G=DGROUP  M=fsbuflow   ACBP=48
 647B:1794 0014 C=DATA   S=_DATA          G=DGROUP  M=fsctr2     ACBP=48
 647B:17A8 0014 C=DATA   S=_DATA          G=DGROUP  M=fsdtr      ACBP=48
 647B:17BC 0000 C=DATA   S=_DATA          G=DGROUP  M=fsopen     ACBP=48
 647B:17BC 001C C=DATA   S=_DATA          G=DGROUP  M=ifsctr2    ACBP=48
 647B:17D8 001C C=DATA   S=_DATA          G=DGROUP  M=ifsdtr     ACBP=48
 647B:17F4 0000 C=DATA   S=_DATA          G=DGROUP  M=istasn2    ACBP=48
 647B:17F4 0014 C=DATA   S=_DATA          G=DGROUP  M=istctr1    ACBP=48
 647B:1808 0014 C=DATA   S=_DATA          G=DGROUP  M=istctr4    ACBP=48
 647B:181C 0000 C=DATA   S=_DATA          G=DGROUP  M=istdipfx   ACBP=48
 647B:181C 0014 C=DATA   S=_DATA          G=DGROUP  M=istdtr1    ACBP=48
 647B:1830 0014 C=DATA   S=_DATA          G=DGROUP  M=istdtr2    ACBP=48
 647B:1844 0000 C=DATA   S=_DATA          G=DGROUP  M=isteatwh   ACBP=48
 647B:1844 0000 C=DATA   S=_DATA          G=DGROUP  M=isteint    ACBP=48
 647B:1844 0000 C=DATA   S=_DATA          G=DGROUP  M=istelng    ACBP=48
 647B:1844 0000 C=DATA   S=_DATA          G=DGROUP  M=istread    ACBP=48
 647B:1844 0000 C=DATA   S=_DATA          G=DGROUP  M=ostasn2    ACBP=48
 647B:1844 0014 C=DATA   S=_DATA          G=DGROUP  M=ostctr1    ACBP=48
 647B:1858 0014 C=DATA   S=_DATA          G=DGROUP  M=ostctr3    ACBP=48
 647B:186C 0014 C=DATA   S=_DATA          G=DGROUP  M=ostdtr1    ACBP=48
 647B:1880 0014 C=DATA   S=_DATA          G=DGROUP  M=ostdtr2    ACBP=48
 647B:1894 0000 C=DATA   S=_DATA          G=DGROUP  M=ostflush   ACBP=48
 647B:1894 0036 C=DATA   S=_DATA          G=DGROUP  M=ostint     ACBP=48
 647B:18CA 0000 C=DATA   S=_DATA          G=DGROUP  M=ostopfx    ACBP=48
 647B:18CA 0000 C=DATA   S=_DATA          G=DGROUP  M=ostosfx    ACBP=48
 647B:18CA 0000 C=DATA   S=_DATA          G=DGROUP  M=ostoutst   ACBP=48
 647B:18CA 0000 C=DATA   S=_DATA          G=DGROUP  M=ostwrite   ACBP=48
 647B:18CA 0000 C=DATA   S=_DATA          G=DGROUP  M=stbalc     ACBP=48
 647B:18CA 0034 C=DATA   S=_DATA          G=DGROUP  M=stbctr1    ACBP=48
 647B:18FE 0000 C=DATA   S=_DATA          G=DGROUP  M=stbdnext   ACBP=48
 647B:18FE 0000 C=DATA   S=_DATA          G=DGROUP  M=stbdsgtn   ACBP=48
 647B:18FE 0000 C=DATA   S=_DATA          G=DGROUP  M=stbdsptn   ACBP=48
 647B:18FE 0034 C=DATA   S=_DATA          G=DGROUP  M=stbdtr     ACBP=48
 647B:1932 0000 C=DATA   S=_DATA          G=DGROUP  M=stboflow   ACBP=48
 647B:1932 0000 C=DATA   S=_DATA          G=DGROUP  M=stbpbfl    ACBP=48
 647B:1932 0000 C=DATA   S=_DATA          G=DGROUP  M=stbsbuf    ACBP=48
 647B:1932 0000 C=DATA   S=_DATA          G=DGROUP  M=stbsetb    ACBP=48
 647B:1932 0000 C=DATA   S=_DATA          G=DGROUP  M=stbsetg    ACBP=48
 647B:1932 0000 C=DATA   S=_DATA          G=DGROUP  M=stbsetp    ACBP=48
 647B:1932 0000 C=DATA   S=_DATA          G=DGROUP  M=stbskoff   ACBP=48
 647B:1932 0000 C=DATA   S=_DATA          G=DGROUP  M=stbskpos   ACBP=48
 647B:1932 0000 C=DATA   S=_DATA          G=DGROUP  M=stbsputn   ACBP=48
 647B:1932 0000 C=DATA   S=_DATA          G=DGROUP  M=stbsync    ACBP=48
 647B:1932 0000 C=DATA   S=_DATA          G=DGROUP  M=stbuflow   ACBP=48
 647B:1932 0000 C=DATA   S=_DATA          G=DGROUP  M=stclear    ACBP=48
 647B:1932 000C C=DATA   S=_DATA          G=DGROUP  M=stctr1     ACBP=48
 647B:193E 001E C=DATA   S=_DATA          G=DGROUP  M=stdtr      ACBP=48
 647B:195C 0000 C=DATA   S=_DATA          G=DGROUP  M=stinit     ACBP=48
 647B:195C 0000 C=DATA   S=_DATA          G=DGROUP  M=stsetf1    ACBP=48
 647B:195C 0000 C=DATA   S=_DATA          G=DGROUP  M=stsetst    ACBP=48
 647B:195C 0000 C=DATA   S=_DATA          G=DGROUP  M=sttie      ACBP=48
 647B:195C 003B C=DATA   S=_DATA          G=DGROUP  M=cconv      ACBP=48
 647B:1998 0101 C=DATA   S=_DATA          G=DGROUP  M=ctype      ACBP=48
 647B:1A9A 0000 C=DATA   S=_DATA          G=DGROUP  M=tolower    ACBP=48
 647B:1A9A 0000 C=DATA   S=_DATA          G=DGROUP  M=toupper    ACBP=48
 647B:1A9A 0000 C=DATA   S=_DATA          G=DGROUP  M=f_lxmul    ACBP=48
 647B:1A9A 0000 C=DATA   S=_DATA          G=DGROUP  M=h_ldiv     ACBP=48
 647B:1A9A 0000 C=DATA   S=_DATA          G=DGROUP  M=h_llsh     ACBP=48
 647B:1A9A 0000 C=DATA   S=_DATA          G=DGROUP  M=h_lursh    ACBP=48
 647B:1A9A 0000 C=DATA   S=_DATA          G=DGROUP  M=n_lxmul    ACBP=48
 647B:1A9A 0000 C=DATA   S=_DATA          G=DGROUP  M=labs       ACBP=48
 647B:1A9A 0000 C=DATA   S=_DATA          G=DGROUP  M=longtoa    ACBP=48
 647B:1A9A 0000 C=DATA   S=_DATA          G=DGROUP  M=scantol    ACBP=48
 647B:1A9A 0036 C=DATA   S=_DATA          G=DGROUP  M=fdiv16     ACBP=48
 647B:1AD0 0002 C=DATA   S=_DATA          G=DGROUP  M=fpstklen   ACBP=48
 647B:1AD2 0000 C=DATA   S=_DATA          G=DGROUP  M=ltoa1      ACBP=48
 647B:1AD2 0000 C=DATA   S=_DATA          G=DGROUP  M=atol       ACBP=48
 647B:1AD2 0031 C=DATA   S=_DATA          G=DGROUP  M=cvtfak     ACBP=48
 647B:1B04 0000 C=DATA   S=_DATA          G=DGROUP  M=realcvt    ACBP=48
 647B:1B04 0000 C=DATA   S=_DATA          G=DGROUP  M=scantod    ACBP=48
 647B:1B04 0002 C=DATA   S=_DATA          G=DGROUP  M=stklen     ACBP=48
 647B:1B06 0014 C=DATA   S=_DATA          G=DGROUP  M=setnew     ACBP=48
 647B:1B1A 0000 C=DATA   S=_DATA          G=DGROUP  M=del        ACBP=48
 647B:1B1A 0000 C=DATA   S=_DATA          G=DGROUP  M=delarray   ACBP=48
 647B:1B1A 0000 C=DATA   S=_DATA          G=DGROUP  M=new        ACBP=48
 647B:1B1A 0000 C=DATA   S=_DATA          G=DGROUP  M=newarray   ACBP=48
 647B:1B1A 0000 C=DATA   S=_DATA          G=DGROUP  M=farheap    ACBP=48
 647B:1B1A 0000 C=DATA   S=_DATA          G=DGROUP  M=calloc     ACBP=48
 647B:1B1A 0002 C=DATA   S=_DATA          G=DGROUP  M=fbrk       ACBP=48
 647B:1B1C 0000 C=DATA   S=_DATA          G=DGROUP  M=fcorelft   ACBP=48
 647B:1B1C 0000 C=DATA   S=_DATA          G=DGROUP  M=coreleft   ACBP=48
 647B:1B1C 0000 C=DATA   S=_DATA          G=DGROUP  M=fcalloc    ACBP=48
 647B:1B1C 0000 C=DATA   S=_DATA          G=DGROUP  M=setblock   ACBP=48
 647B:1B1C 0000 C=DATA   S=_DATA          G=DGROUP  M=h_pada     ACBP=48
 647B:1B1C 0000 C=DATA   S=_DATA          G=DGROUP  M=h_padd     ACBP=48
 647B:1B1C 0000 C=DATA   S=_DATA          G=DGROUP  M=h_psbp     ACBP=48
 647B:1B1C 0000 C=DATA   S=_DATA          G=DGROUP  M=n_pcmp     ACBP=48
 647B:1B1C 0000 C=DATA   S=_DATA          G=DGROUP  M=n_scopy    ACBP=48
 647B:1B1C 0000 C=DATA   S=_DATA          G=DGROUP  M=errormsg   ACBP=48
 647B:1B1C 0000 C=DATA   S=_DATA          G=DGROUP  M=getswit    ACBP=48
 647B:1B1C 0000 C=DATA   S=_DATA          G=DGROUP  M=inport     ACBP=48
 647B:1B1C 0000 C=DATA   S=_DATA          G=DGROUP  M=outport    ACBP=48
 647B:1B1C 0002 C=DATA   S=_DATA          G=DGROUP  M=cputype    ACBP=48
 647B:1B1E 0000 C=DATA   S=_DATA          G=DGROUP  M=abort      ACBP=48
 647B:1B1E 0002 C=DATA   S=_DATA          G=DGROUP  M=atexit     ACBP=48
 647B:1B20 000C C=DATA   S=_DATA          G=DGROUP  M=exit       ACBP=48
 647B:1B2C 0000 C=DATA   S=_DATA          G=DGROUP  M=sigdata    ACBP=48
 647B:1B2C 001F C=DATA   S=_DATA          G=DGROUP  M=_abort     ACBP=48
 647B:1B4C 0000 C=DATA   S=_DATA          G=DGROUP  M=getvect    ACBP=48
 647B:1B4C 0000 C=DATA   S=_DATA          G=DGROUP  M=segread    ACBP=48
 647B:1B4C 0000 C=DATA   S=_DATA          G=DGROUP  M=dosenv     ACBP=48
 647B:1B4C 0000 C=DATA   S=_DATA          G=DGROUP  M=getenv     ACBP=48
 647B:1B4C 0004 C=DATA   S=_DATA          G=DGROUP  M=setenvp    ACBP=48
 647B:1B50 0028 C=DATA   S=_DATA          G=DGROUP  M=signal     ACBP=48
 647B:1B78 0000 C=DATA   S=_DATA          G=DGROUP  M=int86      ACBP=48
 647B:1B78 0000 C=DATA   S=_DATA          G=DGROUP  M=intdos     ACBP=48
 647B:1B78 0000 C=DATA   S=_DATA          G=DGROUP  M=spawn      ACBP=48
 647B:1B78 0013 C=DATA   S=_DATA          G=DGROUP  M=system     ACBP=48
 647B:1B8C 0128 C=DATA   S=_DATA          G=DGROUP  M=xxv        ACBP=48
 647B:1CB4 0000 C=DATA   S=_DATA          G=DGROUP  M=xalloc     ACBP=48
 647B:1CB4 0000 C=DATA   S=_DATA          G=DGROUP  M=xmsg       ACBP=48
 647B:1CB4 0000 C=DATA   S=_DATA          G=DGROUP  M=xxa        ACBP=48
 647B:1CB4 0000 C=DATA   S=_DATA          G=DGROUP  M=xxas       ACBP=48
 647B:1CB4 0012 C=DATA   S=_DATA          G=DGROUP  M=xx         ACBP=48
 647B:1CC6 0000 C=DATA   S=_DATA          G=DGROUP  M=ctor2      ACBP=48
 647B:1CC6 0000 C=DATA   S=_DATA          G=DGROUP  M=ctor3      ACBP=48
 647B:1CC6 0066 C=DATA   S=_DATA          G=DGROUP  M=strings    ACBP=48
 647B:1D2C 0000 C=DATA   S=_CVTSEG        G=DGROUP  M=c0.asm     ACBP=48
 647B:1D2C 0002 C=DATA   S=_CVTSEG        G=DGROUP  M=realcvt2   ACBP=48
 647B:1D2E 0002 C=DATA   S=_CVTSEG        G=DGROUP  M=cvtfak     ACBP=48
 647B:1D30 0000 C=DATA   S=_CVTSEG        G=DGROUP  M=realcvt    ACBP=48
 647B:1D30 0000 C=DATA   S=_SCNSEG        G=DGROUP  M=c0.asm     ACBP=48
 647B:1D30 0006 C=DATA   S=_SCNSEG        G=DGROUP  M=scantod2   ACBP=48
 647B:1D36 0006 C=DATA   S=_SCNSEG        G=DGROUP  M=cvtfak     ACBP=48
 647B:1D3C 0000 C=DATA   S=_SCNSEG        G=DGROUP  M=scantod    ACBP=48
 647B:1D3C 0000 C=CONST  S=_CONST         G=DGROUP  M=c0.asm     ACBP=48
 647B:1D3C 0000 C=INITDATA S=_INIT_         G=DGROUP  M=c0.asm     ACBP=48
 647B:1D3C 0006 C=INITDATA S=_INIT_         G=DGROUP  M=..\cnccom\cncpar.cpp ACBP=48
 647B:1D42 0006 C=INITDATA S=_INIT_         G=DGROUP  M=fp87init   ACBP=48
 647B:1D48 0006 C=INITDATA S=_INIT_         G=DGROUP  M=crtinit    ACBP=48
 647B:1D4E 0006 C=INITDATA S=_INIT_         G=DGROUP  M=setupio    ACBP=48
 647B:1D54 000C C=INITDATA S=_INIT_         G=DGROUP  M=ioststd    ACBP=48
 647B:1D60 0006 C=INITDATA S=_INIT_         G=DGROUP  M=fdiv16     ACBP=48
 647B:1D66 000C C=INITDATA S=_INIT_         G=DGROUP  M=setnew     ACBP=48
 647B:1D72 0006 C=INITDATA S=_INIT_         G=DGROUP  M=new        ACBP=48
 647B:1D78 0006 C=INITDATA S=_INIT_         G=DGROUP  M=cputype    ACBP=48
 647B:1D7E 0006 C=INITDATA S=_INIT_         G=DGROUP  M=setenvp    ACBP=48
 647B:1D84 0000 C=INITDATA S=_INITEND_      G=DGROUP  M=c0.asm     ACBP=28
 647B:1D84 0000 C=EXITDATA S=_EXIT_         G=DGROUP  M=c0.asm     ACBP=48
 647B:1D84 0006 C=EXITDATA S=_EXIT_         G=DGROUP  M=fp87init   ACBP=48
 647B:1D8A 0006 C=EXITDATA S=_EXIT_         G=DGROUP  M=setupio    ACBP=48
 647B:1D90 000C C=EXITDATA S=_EXIT_         G=DGROUP  M=ioststd    ACBP=48
 647B:1D9C 0006 C=EXITDATA S=_EXIT_         G=DGROUP  M=setnew     ACBP=48
 647B:1DA2 0006 C=EXITDATA S=_EXIT_         G=DGROUP  M=new        ACBP=48
 647B:1DA8 0000 C=EXITDATA S=_EXITEND_      G=DGROUP  M=c0.asm     ACBP=28
 647B:1DA8 0000 C=BSS    S=_BSS           G=DGROUP  M=c0.asm     ACBP=48
 647B:1DA8 0080 C=BSS    S=_BSS           G=DGROUP  M=..\cncdrc\cnciposs.cpp ACBP=48
 647B:1E28 0000 C=BSS    S=_BSS           G=DGROUP  M=..\cnccom\cnciopar.cpp ACBP=48
 647B:1E28 031E C=BSS    S=_BSS           G=DGROUP  M=..\cncdrc\cncdrch.cpp ACBP=48
 647B:2146 006C C=BSS    S=_BSS           G=DGROUP  M=..\cnccom\cnccsti.cpp ACBP=48
 647B:21B2 0000 C=BSS    S=_BSS           G=DGROUP  M=cncotl.cpp ACBP=48
 647B:21B2 0004 C=BSS    S=_BSS           G=DGROUP  M=..\cncshow\cncsted.cpp ACBP=48
 647B:21B6 0000 C=BSS    S=_BSS           G=DGROUP  M=..\cncunpac\cncuzsm.cpp ACBP=48
 647B:21B6 0000 C=BSS    S=_BSS           G=DGROUP  M=..\cncunpac\cncuzero.cpp ACBP=48
 647B:21B6 0000 C=BSS    S=_BSS           G=DGROUP  M=..\cncunpac\cncuzcp.cpp ACBP=48
 647B:21B6 000E C=BSS    S=_BSS           G=DGROUP  M=..\cncunpac\cncuwkp.cpp ACBP=48
 647B:21C4 0000 C=BSS    S=_BSS           G=DGROUP  M=..\cncunpac\cncuwerr.cpp ACBP=48
 647B:21C4 0000 C=BSS    S=_BSS           G=DGROUP  M=..\cncunpac\cncusim.cpp ACBP=48
 647B:21C4 1F98 C=BSS    S=_BSS           G=DGROUP  M=..\cncunpac\cncur_pr.cpp ACBP=48
 647B:415C 0100 C=BSS    S=_BSS           G=DGROUP  M=..\cncunpac\cncunums.cpp ACBP=48
 647B:425C 0000 C=BSS    S=_BSS           G=DGROUP  M=..\cncunpac\cncunumf.cpp ACBP=48
 647B:425C 0000 C=BSS    S=_BSS           G=DGROUP  M=..\cncunpac\cncunul.cpp ACBP=48
 647B:425C 0194 C=BSS    S=_BSS           G=DGROUP  M=..\cncunpac\cncunp3.cpp ACBP=48
 647B:43F0 0000 C=BSS    S=_BSS           G=DGROUP  M=..\cncunpac\cncunp2.cpp ACBP=48
 647B:43F0 0000 C=BSS    S=_BSS           G=DGROUP  M=..\cncunpac\cncunp1.cpp ACBP=48
 647B:43F0 0000 C=BSS    S=_BSS           G=DGROUP  M=..\cncunpac\cncuintf.cpp ACBP=48
 647B:43F0 0000 C=BSS    S=_BSS           G=DGROUP  M=..\cncunpac\cncugran.cpp ACBP=48
 647B:43F0 0000 C=BSS    S=_BSS           G=DGROUP  M=..\cncunpac\cncugr4.cpp ACBP=48
 647B:43F0 0002 C=BSS    S=_BSS           G=DGROUP  M=..\cncunpac\cncuform.cpp ACBP=48
 647B:43F2 0000 C=BSS    S=_BSS           G=DGROUP  M=..\cncunpac\cncufom.cpp ACBP=48
 647B:43F2 0000 C=BSS    S=_BSS           G=DGROUP  M=..\cncunpac\cncufnum.cpp ACBP=48
 647B:43F2 0000 C=BSS    S=_BSS           G=DGROUP  M=..\cncunpac\cncufnm.cpp ACBP=48
 647B:43F2 0000 C=BSS    S=_BSS           G=DGROUP  M=..\cncunpac\cncuends.cpp ACBP=48
 647B:43F2 0000 C=BSS    S=_BSS           G=DGROUP  M=..\cncunpac\cncuasim.cpp ACBP=48
 647B:43F2 0000 C=BSS    S=_BSS           G=DGROUP  M=..\cncunpac\cncuana.cpp ACBP=48
 647B:43F2 0000 C=BSS    S=_BSS           G=DGROUP  M=..\cnctime\cnctszr.cpp ACBP=48
 647B:43F2 0000 C=BSS    S=_BSS           G=DGROUP  M=..\cnctime\cnctstp.cpp ACBP=48
 647B:43F2 0000 C=BSS    S=_BSS           G=DGROUP  M=..\cnctime\cnctsm.cpp ACBP=48
 647B:43F2 0000 C=BSS    S=_BSS           G=DGROUP  M=..\cnctime\cnctrpr.cpp ACBP=48
 647B:43F2 0000 C=BSS    S=_BSS           G=DGROUP  M=..\cnctime\cnctres.cpp ACBP=48
 647B:43F2 0000 C=BSS    S=_BSS           G=DGROUP  M=..\cnctime\cnctrc2.cpp ACBP=48
 647B:43F2 0000 C=BSS    S=_BSS           G=DGROUP  M=..\cnctime\cnctrc1.cpp ACBP=48
 647B:43F2 0000 C=BSS    S=_BSS           G=DGROUP  M=..\cnctime\cnctpoin.cpp ACBP=48
 647B:43F2 0000 C=BSS    S=_BSS           G=DGROUP  M=..\cnctime\cnctmm.cpp ACBP=48
 647B:43F2 0000 C=BSS    S=_BSS           G=DGROUP  M=..\cnctime\cnctmfun.cpp ACBP=48
 647B:43F2 0000 C=BSS    S=_BSS           G=DGROUP  M=..\cnctime\cnctio.cpp ACBP=48
 647B:43F2 0000 C=BSS    S=_BSS           G=DGROUP  M=..\cnctime\cnctinfm.cpp ACBP=48
 647B:43F2 0000 C=BSS    S=_BSS           G=DGROUP  M=..\cnctime\cnctcom1.cpp ACBP=48
 647B:43F2 0000 C=BSS    S=_BSS           G=DGROUP  M=..\cnctime\cnctcm.cpp ACBP=48
 647B:43F2 0000 C=BSS    S=_BSS           G=DGROUP  M=..\cnctime\cnctbgn.cpp ACBP=48
 647B:43F2 00C8 C=BSS    S=_BSS           G=DGROUP  M=..\cncserr\zapic.cpp ACBP=48
 647B:44BA 0000 C=BSS    S=_BSS           G=DGROUP  M=..\cncserr\ob_out.cpp ACBP=48
 647B:44BA 0000 C=BSS    S=_BSS           G=DGROUP  M=..\cncserr\ob_kon2.cpp ACBP=48
 647B:44BA 0000 C=BSS    S=_BSS           G=DGROUP  M=..\cncserr\ob_kon.cpp ACBP=48
 647B:44BA 0000 C=BSS    S=_BSS           G=DGROUP  M=..\cncserr\ob_in.cpp ACBP=48
 647B:44BA 0000 C=BSS    S=_BSS           G=DGROUP  M=..\cncserr\mistake.cpp ACBP=48
 647B:44BA 008C C=BSS    S=_BSS           G=DGROUP  M=..\cncserr\glav.cpp ACBP=48
 647B:4546 0000 C=BSS    S=_BSS           G=DGROUP  M=..\cncserr\diag.cpp ACBP=48
 647B:4546 045A C=BSS    S=_BSS           G=DGROUP  M=..\cncserr\avtoyp.cpp ACBP=48
 647B:49A0 0000 C=BSS    S=_BSS           G=DGROUP  M=..\cncdrv\cncisref.cpp ACBP=48
 647B:49A0 0080 C=BSS    S=_BSS           G=DGROUP  M=..\cncdrv\cncispoz.cpp ACBP=48
 647B:4A20 0000 C=BSS    S=_BSS           G=DGROUP  M=..\cncdrv\cncires.cpp ACBP=48
 647B:4A20 0080 C=BSS    S=_BSS           G=DGROUP  M=..\cncdrv\cncieoks.cpp ACBP=48
 647B:4AA0 000C C=BSS    S=_BSS           G=DGROUP  M=..\cncdrv\cncicrfn.cpp ACBP=48
 647B:4AAC 0000 C=BSS    S=_BSS           G=DGROUP  M=..\cncci\cncciuna.cpp ACBP=48
 647B:4AAC 004E C=BSS    S=_BSS           G=DGROUP  M=..\cncci\cnccisvl.cpp ACBP=48
 647B:4AFA 0000 C=BSS    S=_BSS           G=DGROUP  M=..\cncci\cnccism0.cpp ACBP=48
 647B:4AFA 0000 C=BSS    S=_BSS           G=DGROUP  M=..\cncci\cnccirnd.cpp ACBP=48
 647B:4AFA 0000 C=BSS    S=_BSS           G=DGROUP  M=..\cncci\cnccirnc.cpp ACBP=48
 647B:4AFA 0000 C=BSS    S=_BSS           G=DGROUP  M=..\cncci\cnccirds.cpp ACBP=48
 647B:4AFA 0018 C=BSS    S=_BSS           G=DGROUP  M=..\cncci\cnccipol.cpp ACBP=48
 647B:4B12 0000 C=BSS    S=_BSS           G=DGROUP  M=..\cncci\cnccimrr.cpp ACBP=48
 647B:4B12 0000 C=BSS    S=_BSS           G=DGROUP  M=..\cncci\cnccill.cpp ACBP=48
 647B:4B12 0000 C=BSS    S=_BSS           G=DGROUP  M=..\cncci\cnccikrg.cpp ACBP=48
 647B:4B12 0000 C=BSS    S=_BSS           G=DGROUP  M=..\cncci\cnccikcn.cpp ACBP=48
 647B:4B12 0000 C=BSS    S=_BSS           G=DGROUP  M=..\cncci\cncciinp.cpp ACBP=48
 647B:4B12 0000 C=BSS    S=_BSS           G=DGROUP  M=..\cncci\cnccieqv.cpp ACBP=48
 647B:4B12 0000 C=BSS    S=_BSS           G=DGROUP  M=..\cncci\cnccict.cpp ACBP=48
 647B:4B12 0000 C=BSS    S=_BSS           G=DGROUP  M=..\cncci\cnccicrs.cpp ACBP=48
 647B:4B12 0000 C=BSS    S=_BSS           G=DGROUP  M=..\cnccamp\cncctok.cpp ACBP=48
 647B:4B12 0000 C=BSS    S=_BSS           G=DGROUP  M=..\cnccamp\cnccstr.cpp ACBP=48
 647B:4B12 0000 C=BSS    S=_BSS           G=DGROUP  M=..\cnccamp\cnccrrdp.cpp ACBP=48
 647B:4B12 0126 C=BSS    S=_BSS           G=DGROUP  M=..\cnccamp\cnccrm.cpp ACBP=48
 647B:4C38 0000 C=BSS    S=_BSS           G=DGROUP  M=..\cnccamp\cnccref.cpp ACBP=48
 647B:4C38 0000 C=BSS    S=_BSS           G=DGROUP  M=..\cnccamp\cnccoutk.cpp ACBP=48
 647B:4C38 0000 C=BSS    S=_BSS           G=DGROUP  M=..\cnccamp\cnccman.cpp ACBP=48
 647B:4C38 0000 C=BSS    S=_BSS           G=DGROUP  M=..\cnccamp\cnccfrs.cpp ACBP=48
 647B:4C38 0000 C=BSS    S=_BSS           G=DGROUP  M=..\cnccamp\cnccauto.cpp ACBP=48
 647B:4C38 0000 C=BSS    S=_BSS           G=DGROUP  M=..\cncdrc\cncxupr.cpp ACBP=48
 647B:4C38 0000 C=BSS    S=_BSS           G=DGROUP  M=..\cncdrc\cnctend.cpp ACBP=48
 647B:4C38 0004 C=BSS    S=_BSS           G=DGROUP  M=..\cncdrc\cnctcom2.cpp ACBP=48
 647B:4C3C 0000 C=BSS    S=_BSS           G=DGROUP  M=..\cncdrc\cncsupr.cpp ACBP=48
 647B:4C3C 0000 C=BSS    S=_BSS           G=DGROUP  M=..\cncdrc\cncmup.cpp ACBP=48
 647B:4C3C 0000 C=BSS    S=_BSS           G=DGROUP  M=..\cncdrc\cnciref.cpp ACBP=48
 647B:4C3C 0000 C=BSS    S=_BSS           G=DGROUP  M=..\cncdrc\cncipos.cpp ACBP=48
 647B:4C3C 0080 C=BSS    S=_BSS           G=DGROUP  M=..\cncdrc\cncilin.cpp ACBP=48
 647B:4CBC 0000 C=BSS    S=_BSS           G=DGROUP  M=..\cncdrc\cncieok.cpp ACBP=48
 647B:4CBC 0000 C=BSS    S=_BSS           G=DGROUP  M=..\cncdrc\cnciax.cpp ACBP=48
 647B:4CBC 0000 C=BSS    S=_BSS           G=DGROUP  M=..\cncdrc\cncdtime.cpp ACBP=48
 647B:4CBC 0000 C=BSS    S=_BSS           G=DGROUP  M=..\cncdrc\cncdrc.cpp ACBP=48
 647B:4CBC 0000 C=BSS    S=_BSS           G=DGROUP  M=..\cncdrc\cncdcap.cpp ACBP=48
 647B:4CBC 0000 C=BSS    S=_BSS           G=DGROUP  M=..\cncdrc\cnccamp.cpp ACBP=48
 647B:4CBC 0000 C=BSS    S=_BSS           G=DGROUP  M=..\cncshow\cnctedi.cpp ACBP=48
 647B:4CBC 00DA C=BSS    S=_BSS           G=DGROUP  M=..\cncshow\cncsvar.cpp ACBP=48
 647B:4D96 0004 C=BSS    S=_BSS           G=DGROUP  M=..\cncshow\cncstio.cpp ACBP=48
 647B:4D9A 0088 C=BSS    S=_BSS           G=DGROUP  M=..\cncshow\cncstedc.cpp ACBP=48
 647B:4E22 0000 C=BSS    S=_BSS           G=DGROUP  M=..\cncshow\cncsrmsg.cpp ACBP=48
 647B:4E22 0000 C=BSS    S=_BSS           G=DGROUP  M=..\cncshow\cncsman.cpp ACBP=48
 647B:4E22 0000 C=BSS    S=_BSS           G=DGROUP  M=..\cncshow\cncskor.cpp ACBP=48
 647B:4E22 0582 C=BSS    S=_BSS           G=DGROUP  M=..\cncshow\cncsjog.cpp ACBP=48
 647B:53A4 0000 C=BSS    S=_BSS           G=DGROUP  M=..\cncshow\cncshow.cpp ACBP=48
 647B:53A4 00A4 C=BSS    S=_BSS           G=DGROUP  M=..\cncshow\cncsgstr.cpp ACBP=48
 647B:5448 0000 C=BSS    S=_BSS           G=DGROUP  M=..\cncshow\cncsgsc.cpp ACBP=48
 647B:5448 0001 C=BSS    S=_BSS           G=DGROUP  M=..\cncshow\cncsgeom.cpp ACBP=48
 647B:544A 0000 C=BSS    S=_BSS           G=DGROUP  M=..\cncshow\cncsgdc.cpp ACBP=48
 647B:544A 0000 C=BSS    S=_BSS           G=DGROUP  M=..\cncshow\cncsfun.cpp ACBP=48
 647B:544A 0000 C=BSS    S=_BSS           G=DGROUP  M=..\cncshow\cncsfspr.cpp ACBP=48
 647B:544A 00FC C=BSS    S=_BSS           G=DGROUP  M=..\cncshow\cncsfh.cpp ACBP=48
 647B:5546 0000 C=BSS    S=_BSS           G=DGROUP  M=..\cncshow\cncsedit.cpp ACBP=48
 647B:5546 0000 C=BSS    S=_BSS           G=DGROUP  M=..\cncshow\cncsdiag.cpp ACBP=48
 647B:5546 0084 C=BSS    S=_BSS           G=DGROUP  M=..\cncshow\cncscwnd.cpp ACBP=48
 647B:55CA 0000 C=BSS    S=_BSS           G=DGROUP  M=..\cncshow\cncscr.cpp ACBP=48
 647B:55CA 0004 C=BSS    S=_BSS           G=DGROUP  M=..\cncshow\cncscmpr.cpp ACBP=48
 647B:55CE 0000 C=BSS    S=_BSS           G=DGROUP  M=..\cncshow\cncsbeg.cpp ACBP=48
 647B:55CE 0024 C=BSS    S=_BSS           G=DGROUP  M=..\cncshow\cncsauto.cpp ACBP=48
 647B:55F2 0000 C=BSS    S=_BSS           G=DGROUP  M=..\cnccom\cncunpac.cpp ACBP=48
 647B:55F2 0BFC C=BSS    S=_BSS           G=DGROUP  M=..\cnccom\cncun3.cpp ACBP=48
 647B:61EE 15EA C=BSS    S=_BSS           G=DGROUP  M=..\cnccom\cncun2.cpp ACBP=48
 647B:77D8 0B8C C=BSS    S=_BSS           G=DGROUP  M=..\cnccom\cncun1.cpp ACBP=48
 647B:8364 104A C=BSS    S=_BSS           G=DGROUP  M=..\cnccom\cncpar.cpp ACBP=48
 647B:93AE 03E8 C=BSS    S=_BSS           G=DGROUP  M=..\cnccom\cncintf.cpp ACBP=48
 647B:9796 0120 C=BSS    S=_BSS           G=DGROUP  M=..\cnccom\cncintb.cpp ACBP=48
 647B:98B6 090C C=BSS    S=_BSS           G=DGROUP  M=..\cnccom\cncint.cpp ACBP=48
 647B:A1C2 009E C=BSS    S=_BSS           G=DGROUP  M=..\cnccom\cnchard.cpp ACBP=48
 647B:A260 0088 C=BSS    S=_BSS           G=DGROUP  M=..\cnccom\cnced.cpp ACBP=48
 647B:A2E8 0294 C=BSS    S=_BSS           G=DGROUP  M=..\cnccom\cnccstat.cpp ACBP=48
 647B:A57C 002A C=BSS    S=_BSS           G=DGROUP  M=efcvt      ACBP=48
 647B:A5A6 0000 C=BSS    S=_BSS           G=DGROUP  M=atan       ACBP=48
 647B:A5A6 0000 C=BSS    S=_BSS           G=DGROUP  M=fabs       ACBP=48
 647B:A5A6 0000 C=BSS    S=_BSS           G=DGROUP  M=ldtrunc    ACBP=48
 647B:A5A6 0000 C=BSS    S=_BSS           G=DGROUP  M=realcvt2   ACBP=48
 647B:A5A6 0000 C=BSS    S=_BSS           G=DGROUP  M=round      ACBP=48
 647B:A5A6 0000 C=BSS    S=_BSS           G=DGROUP  M=scantod2   ACBP=48
 647B:A5A6 0000 C=BSS    S=_BSS           G=DGROUP  M=xcvt       ACBP=48
 647B:A5A6 0000 C=BSS    S=_BSS           G=DGROUP  M=cos        ACBP=48
 647B:A5A6 0000 C=BSS    S=_BSS           G=DGROUP  M=modf       ACBP=48
 647B:A5A6 0000 C=BSS    S=_BSS           G=DGROUP  M=pow        ACBP=48
 647B:A5A6 0000 C=BSS    S=_BSS           G=DGROUP  M=sin        ACBP=48
 647B:A5A6 0000 C=BSS    S=_BSS           G=DGROUP  M=sqrt       ACBP=48
 647B:A5A6 0000 C=BSS    S=_BSS           G=DGROUP  M=tan        ACBP=48
 647B:A5A6 0000 C=BSS    S=_BSS           G=DGROUP  M=_pow10     ACBP=48
 647B:A5A6 0000 C=BSS    S=_BSS           G=DGROUP  M=bioscom    ACBP=48
 647B:A5A6 0000 C=BSS    S=_BSS           G=DGROUP  M=vram       ACBP=48
 647B:A5A6 0000 C=BSS    S=_BSS           G=DGROUP  M=crtinit    ACBP=48
 647B:A5A6 0000 C=BSS    S=_BSS           G=DGROUP  M=getch      ACBP=48
 647B:A5A6 0000 C=BSS    S=_BSS           G=DGROUP  M=kbhit      ACBP=48
 647B:A5A6 0000 C=BSS    S=_BSS           G=DGROUP  M=strpbrk    ACBP=48
 647B:A5A6 0000 C=BSS    S=_BSS           G=DGROUP  M=memcmp     ACBP=48
 647B:A5A6 0000 C=BSS    S=_BSS           G=DGROUP  M=memcpy     ACBP=48
 647B:A5A6 0000 C=BSS    S=_BSS           G=DGROUP  M=memset     ACBP=48
 647B:A5A6 0000 C=BSS    S=_BSS           G=DGROUP  M=movmem     ACBP=48
 647B:A5A6 0000 C=BSS    S=_BSS           G=DGROUP  M=strcat     ACBP=48
 647B:A5A6 0000 C=BSS    S=_BSS           G=DGROUP  M=strcmp     ACBP=48
 647B:A5A6 0000 C=BSS    S=_BSS           G=DGROUP  M=strcpy     ACBP=48
 647B:A5A6 0000 C=BSS    S=_BSS           G=DGROUP  M=strlen     ACBP=48
 647B:A5A6 0000 C=BSS    S=_BSS           G=DGROUP  M=strncpy    ACBP=48
 647B:A5A6 0000 C=BSS    S=_BSS           G=DGROUP  M=strrev     ACBP=48
 647B:A5A6 0000 C=BSS    S=_BSS           G=DGROUP  M=strstr     ACBP=48
 647B:A5A6 000D C=BSS    S=_BSS           G=DGROUP  M=mkname     ACBP=48
 647B:A5B4 0000 C=BSS    S=_BSS           G=DGROUP  M=setupio    ACBP=48
 647B:A5B4 0000 C=BSS    S=_BSS           G=DGROUP  M=ioerror    ACBP=48
 647B:A5B4 0000 C=BSS    S=_BSS           G=DGROUP  M=isatty     ACBP=48
 647B:A5B4 0000 C=BSS    S=_BSS           G=DGROUP  M=lseek      ACBP=48
 647B:A5B4 0000 C=BSS    S=_BSS           G=DGROUP  M=reada      ACBP=48
 647B:A5B4 0000 C=BSS    S=_BSS           G=DGROUP  M=scanner    ACBP=48
 647B:A5B4 0000 C=BSS    S=_BSS           G=DGROUP  M=unlink     ACBP=48
 647B:A5B4 0000 C=BSS    S=_BSS           G=DGROUP  M=vprinter   ACBP=48
 647B:A5B4 0001 C=BSS    S=_BSS           G=DGROUP  M=putc       ACBP=48
 647B:A5B6 0000 C=BSS    S=_BSS           G=DGROUP  M=chmoda     ACBP=48
 647B:A5B6 0000 C=BSS    S=_BSS           G=DGROUP  M=closea     ACBP=48
 647B:A5B6 0000 C=BSS    S=_BSS           G=DGROUP  M=eof        ACBP=48
 647B:A5B6 0000 C=BSS    S=_BSS           G=DGROUP  M=findfirs   ACBP=48
 647B:A5B6 0001 C=BSS    S=_BSS           G=DGROUP  M=getc       ACBP=48
 647B:A5B8 0000 C=BSS    S=_BSS           G=DGROUP  M=open       ACBP=48
 647B:A5B8 0000 C=BSS    S=_BSS           G=DGROUP  M=opena      ACBP=48
 647B:A5B8 0000 C=BSS    S=_BSS           G=DGROUP  M=read       ACBP=48
 647B:A5B8 0000 C=BSS    S=_BSS           G=DGROUP  M=rename     ACBP=48
 647B:A5B8 0000 C=BSS    S=_BSS           G=DGROUP  M=ungetc     ACBP=48
 647B:A5B8 0000 C=BSS    S=_BSS           G=DGROUP  M=writea     ACBP=48
 647B:A5B8 0000 C=BSS    S=_BSS           G=DGROUP  M=ioctl      ACBP=48
 647B:A5B8 00BE C=BSS    S=_BSS           G=DGROUP  M=ioststd    ACBP=48
 647B:A676 0004 C=BSS    S=_BSS           G=DGROUP  M=stdtr      ACBP=48
 647B:A67A 0000 C=BSS    S=_BSS           G=DGROUP  M=longtoa    ACBP=48
 647B:A67A 0000 C=BSS    S=_BSS           G=DGROUP  M=scantol    ACBP=48
 647B:A67A 0000 C=BSS    S=_BSS           G=DGROUP  M=atol       ACBP=48
 647B:A67A 0004 C=BSS    S=_BSS           G=DGROUP  M=setnew     ACBP=48
 647B:A67E 0004 C=BSS    S=_BSS           G=DGROUP  M=new        ACBP=48
 647B:A682 0000 C=BSS    S=_BSS           G=DGROUP  M=coreleft   ACBP=48
 647B:A682 0000 C=BSS    S=_BSS           G=DGROUP  M=fcalloc    ACBP=48
 647B:A682 0000 C=BSS    S=_BSS           G=DGROUP  M=setblock   ACBP=48
 647B:A682 0000 C=BSS    S=_BSS           G=DGROUP  M=inport     ACBP=48
 647B:A682 0000 C=BSS    S=_BSS           G=DGROUP  M=outport    ACBP=48
 647B:A682 0080 C=BSS    S=_BSS           G=DGROUP  M=atexit     ACBP=48
 647B:A702 0004 C=BSS    S=_BSS           G=DGROUP  M=sigdata    ACBP=48
 647B:A706 0000 C=BSS    S=_BSS           G=DGROUP  M=getvect    ACBP=48
 647B:A706 0000 C=BSS    S=_BSS           G=DGROUP  M=segread    ACBP=48
 647B:A706 0000 C=BSS    S=_BSS           G=DGROUP  M=getenv     ACBP=48
 647B:A706 0008 C=BSS    S=_BSS           G=DGROUP  M=signal     ACBP=48
 647B:A70E 0000 C=BSS    S=_BSS           G=DGROUP  M=int86      ACBP=48
 647B:A70E 0000 C=BSS    S=_BSS           G=DGROUP  M=intdos     ACBP=48
 647B:A70E 0004 C=BSS    S=_BSS           G=DGROUP  M=xxv        ACBP=48
 647B:A712 0000 C=BSS    S=_BSS           G=DGROUP  M=xxa        ACBP=48
 647B:A712 0000 C=BSS    S=_BSS           G=DGROUP  M=xxas       ACBP=48
 647B:A712 000A C=BSS    S=_BSS           G=DGROUP  M=xx         ACBP=48
 647B:A71C 0000 C=BSS    S=_BSS           G=DGROUP  M=ctor2      ACBP=48
 647B:A71C 0000 C=BSS    S=_BSS           G=DGROUP  M=ctor3      ACBP=48
 647B:A71C 0000 C=BSS    S=_BSS           G=DGROUP  M=strings    ACBP=48
 647B:A71C 0000 C=BSSEND S=_BSSEND        G=DGROUP  M=c0.asm     ACBP=28
 6EED:0000 0131 C=STACK  S=_STACK         G=(none)  M=c0.asm     ACBP=74
 6EED:0000 0080 C=STACK  S=_STACK         G=(none)  M=emuvars    ACBP=78

  Address         Publics by Name

 0000:5767       @$bdele$qnv
 0000:577D       @$bdla$qnv
 58B0:06CD idle  @$blsh$qm7ostreamm10QParameter
 0000:5800       @$bnew$qui
 0000:5855       @$bnwa$qui
 58B0:076A       @$brsh$qm7istreamm10QParameter
 58B0:0B71       @$xt$10QParameter
 0B71:0209       @$xt$11fstreambase
 0B71:0297       @$xt$3ios
 0B71:02CD       @$xt$7filebuf
 0B71:0255       @$xt$7istream
 58B0:0BDB       @$xt$7ParData
 58B0:0BAF       @$xt$8AxisData
 0B71:01B5       @$xt$8ifstream
 0B71:030F       @$xt$9streambuf
 57D9:0156 idle  @At0$qnui
 57D9:0359 idle  @At1$qcnui
 57D9:0380 idle  @At2$qcnui
 57D9:0489 idle  @At3$qcnui
 57D9:0680 idle  @At31$qcnui
 57D9:08A6 idle  @At32$qcnui
 57D9:0A0F idle  @At34$qcnui
 57D9:0B74 idle  @At35$qcnui
 57D9:0D03 idle  @At354$qnui
 57D9:0D41 idle  @At355$qnui
 274F:0035       @avtoyp$qv
 52D6:06A8 idle  @AxChoose$qv
 523A:05F5       @AxIndicated$qi
 58B0:0028 idle  @AxisData@$bctr$qv
 58B0:005F idle  @AxisData@clear$qv
 52D6:059B       @AxStatus$qv
 52AB:0022       @BackTree$qcucnui
 5791:0062       @Beginer$qv
 52AB:008D       @Boot$qv
 4C64:12C6 idle  @CalcNewPosition$q9DIRECTIONnit2
 4C64:26A7       @CalcRightMargin$qi
 56D8:03FA       @ClrWind$qucucucuc
 4A9D:0001 idle  @cmdrc$qv
 413A:001D       @cnccauto$qv
 400C:0E4A idle  @cnccfbt$qi
 4109:000B       @cnccfrs$qi
 3B0A:0794 idle  @cncciabc$qv
 30C4:0EAB       @cnccialfa$qdd
 2FDF:032C idle  @cncciclr$qnd
 3C71:1872       @cnccicrc$qddddddndt7t7t7
 3C71:0008       @cnccicrs$qddddddndt7
 3C3C:000B       @cnccict$qv
 3359:0EA5       @cnccidan$qdddd
 2E8E:14EB idle  @cnccidfi$qv
 3B0A:0F92       @cncciekl$qi
 3B0A:059A idle  @cnccieqv$qd
 347A:2285       @cnccifcc$qdd
 347A:2640       @cnccifcl$qv
 347A:0B3A idle  @cnccifdc$qdddddd
 30C4:1E64 idle  @cnccifdp$qii
 30C4:0F36       @cncciffi$qi
 347A:2198 idle  @cnccifll$qdd
 30C4:1D6D idle  @cncciflr$qiidd
 3C71:06DC       @cncciicr$qii
 391E:000C       @cncciinp$qv
 391E:0AE5 idle  @cncciiol$qii
 3899:0006       @cnccikcn$qv
 3715:0007       @cnccikrg$qv
 3C71:0205       @cnccilc$qdddddddndt8t8t8
 347A:0000       @cnccill$qdddddd
 3B0A:0EC8 idle  @cnccilmn$qdi
 391E:1B39       @cnccilnc$qdddddddndt8t8t8
 3B0A:000B       @cnccilnr$qv
 30C4:11C2 idle  @cnccilr$qii
 3359:0005 idle  @cnccimrr1$qv
 3359:0452 idle  @cnccimrr2$qv
 2FDF:0190 idle  @cnccimvp$qii
 391E:0537       @cncciout$qv
 391E:0F80 idle  @cncciplc$qiidddd
 3309:000B       @cnccipol$qv
 32E9:000F       @cnccirds$qv
 30C4:0159 idle  @cnccireq$qv
 30C4:000C       @cnccirnc$qv
 3014:0000       @cnccirnd$qv
 3C3C:024D       @cnccirrr$qdd
 2FDF:0006       @cnccism0$qv
 2E8E:000F       @cnccisvl$qv
 2E55:0000       @cncciuna$qv
 3715:17E3 idle  @cnccivnt$qv
 400C:000A       @cnccman$qv
 4B14:0A72 idle  @cnccmemv$qv
 3FB0:0007       @cnccoutk$qv
 3F74:0003       @cnccref$qv
 3F31:0000       @cnccrm$qv
 3EAB:0009       @cnccstr$qv
 3E67:0009       @cncctok$qv
 3EAB:0287 idle  @cnccvost$qv
 483C:1B6F idle  @cnciast$qii
 483C:0005       @cnciax$qv
 2C85:0007       @cncicrfn$qv
 4740:000A       @cncieok$qv
 2B7D:000C       @cncieoks$qi
 46AF:000A       @cncilin$qv
 4568:0000       @cncipos$qi
 0AC2:0000       @cnciposs$qi
 44C4:000B       @cnciref$qi
 2B55:000F       @cncires$qv
 0AC2:099A       @cncirst$qi
 2A84:0002 idle  @cnciseok$qi
 46AF:04B3       @cncispd$qv
 0AC2:033C       @cncispds$qi
 2A84:04C1       @cncispoz$qi
 297E:0007       @cncisref$qi
 44C4:090C       @cncisrf$qi
 2A84:0936 idle  @cncisspd$qi
 449C:000C       @cncmup$qv
 3EDA:000F       @cncrrdp$qv
 43F5:000D       @cncsupr$qv
 21C7:03F6 idle  @cnctbgmn$qv
 21C7:000D       @cnctbgn$qv
 4361:046F idle  @cnctcbf$qv
 4361:050F idle  @cnctcbff$qv
 218A:0006       @cnctcm$qv
 1F36:03FC       @cnctcmm$qv
 2166:000A       @cnctcom1$qv
 4361:0003       @cnctcom2$qv
 42D2:0001       @cnctend$qv
 20D4:0004       @cnctinfm$qv
 4361:062C       @cnctinit$qv
 20C9:000E       @cnctio$qv
 4A1E:06BE idle  @cnctirps$qv
 2037:000B       @cnctmfun$qv
 200A:0009       @cnctmm$qv
 42D2:01C5 idle  @cnctnext$qv
 1FF9:0001 idle  @cnctpoin$qv
 1FF4:0001       @cnctrc1$qv
 1FEF:000D       @cnctrc2$qv
 1FC0:0000       @cnctres$qv
 1FA2:000A       @cnctsm$qv
 1F36:0003       @cnctstp$qv
 1EC4:0007       @cnctszr$qv
 1DE2:0086       @cncuana$qv
 1DB3:0004       @cncuasim$qv
 1DB3:0289 idle  @cncuctg$qd
 1C5E:00D9       @cncuends$qv
 116B:1183 idle  @cncuera$qii
 14F6:0CCB idle  @cncufgo$qnc
 0CA7:01DF       @cncufiks$qv
 1C55:0016       @cncufnm$qv
 116B:0007       @cncufns$qv
 1C1C:0000       @cncufnum$qv
 1ADF:0000       @cncufom$qncdd
 17E8:0004       @cncuform$qv
 17E8:0F25 idle  @cncuformb$qii
 1C5E:1385       @cncufpnn$qiincdit3di
 1DE2:0D8E idle  @cncufpp$qddnd
 0E9D:1C1A idle  @cncufscn$qiincndnit3t4t5
 0CA7:03D2       @cncugekv$qv
 1793:000B       @cncugr4$qv
 1701:0001       @cncugran$qid
 16C5:000A       @cncuintf$qv
 0E6D:0005       @cncukom$qv
 15DD:01AD idle  @cncunp1$qv
 14F6:0099       @cncunp2$qv
 1291:0021       @cncunp3$qv
 116B:04D7       @cncunuma$qv
 116B:10DE idle  @cncunumf$qidd
 1089:0003       @cncunums$qv
 1C5E:117B       @cncurbuf$qv
 1C5E:146F idle  @cncurdfpp$qv
 116B:11C4 idle  @cncurtp$qd
 0E9D:1D41 idle  @cncurtpa$qd
 0E9D:0106       @cncur_pr$qnc
 0E6D:00B8       @cncusim$qv
 0E53:001B       @cncuwerr$qv
 0DC1:006B       @cncuwkp$qi
 0DC1:0667       @cncuwnam$qv
 0E9D:1E09 idle  @cncuwtpa$qdd
 0D31:000C       @cncuzcp$qv
 0D12:000D       @cncuzero$qv
 0CA7:0004       @cncuzsm$qv
 423B:000E       @cncxupr$qv
 57D9:0009       @Cnc_auto$qc
 55F5:000C       @Cnc_diag$qc
 5593:000E       @Cnc_editpr$qc
 4F43:0003       @Cnc_edkorr$qc
 4EFD:0000       @Cnc_manual$qc
 5123:01F0       @Cnc_show$qv
 574B:0330 idle  @CompilError$qie
 58B0:0854 idle  @ComPortsData@$basg$qm6Serial
 58B0:0812 idle  @ComPortsData@$bctr$qv
 647B:0B44 idle  @ComPortsData@convertBoud
 647B:0B3A idle  @ComPortsData@convertParity
 647B:0B36 idle  @ComPortsData@convertStopBit
 58B0:0A6F idle  @ComPortsData@putBits$q5eBits
 58B0:08F5 idle  @ComPortsData@putBoud$qul
 58B0:08AF idle  @ComPortsData@putNumPort$q7eNumCom
 58B0:09F3 idle  @ComPortsData@putParity$q7eParity
 58B0:0A52 idle  @ComPortsData@putStopBit$q8eStopBit
 574B:0019       @CompQparam$qv
 4C01:02D3       @CompTabKorr$qv
 4C01:0551       @CompTabNull$qv
 4C01:00E2       @CompTehParam$qv
 538D:02D2 idle  @CopFile$qnc
 56A4:020B       @CtrlWindows$qnui
 538D:08DC idle  @CursMove$qncc
 2676:0C9C idle  @cur_window$qiiui
 538D:06F1 idle  @DelAll$qv
 538D:0672 idle  @DelFile$qv
 538D:0FA4       @DestSwitch$qc
 55F5:0203 idle  @Dg0$qcnui
 55F5:0322 idle  @Dg1$qcnui
 55F5:0401 idle  @Dg13$qcnui
 55F5:04B0 idle  @Dg15$qv
 55F5:04DA idle  @Dg2$qcnui
 55F5:0550 idle  @Dg21$qcnui
 55F5:0577 idle  @Dg23$qcnui
 55F5:05F2 idle  @Dg232$qcnui
 55F5:068F idle  @Dg2322$qcnui
 55F5:073C idle  @Dg233$qcnui
 55F5:07AD idle  @Dg2332$qcnui
 55F5:082E idle  @Dg25$qcnui
 55F5:08A9 idle  @Dg253$qcnui
 55F5:091F idle  @Dg2532$qcnui
 55F5:09A5 idle  @Dg3$qcnui
 55F5:0AC2 idle  @Dg35$qv
 2676:0054       @diag$qv
 56D8:06EB       @DrawWarning$qnc
 4F43:08CD idle  @Ek0$qcnui
 4F43:0907 idle  @Ek1$qcnui
 4F43:097F idle  @Ek11$qcnui
 4F43:09B3 idle  @Ek12$qcnui
 4F43:09E7 idle  @Ek13$qcnui
 4F43:0A22 idle  @Ek14$qcnui
 4F43:0A96 idle  @Ek15$qcnui
 4F43:0AE1 idle  @Ek151$qcnui
 4F43:0B15 idle  @Ek152$qcnui
 4F43:0B49 idle  @Ek153$qcnui
 4F43:0B7D idle  @Ek154$qcnui
 4F43:0B9F idle  @Ek155$qcnui
 4F43:0BC2 idle  @Ek1551$qcnui
 4F43:0BEC idle  @Ek1553$qcnui
 4F43:0C96 idle  @Ek1554$qcnui
 4F43:0CC0 idle  @Ek1555$qcnui
 4F43:0CEF idle  @Ek2$qcnui
 4F43:0D67 idle  @Ek21$qcnui
 4F43:0D9B idle  @Ek22$qcnui
 4F43:0DCF idle  @Ek23$qcnui
 4F43:0E0A idle  @Ek24$qcnui
 4F43:0E7E idle  @Ek25$qcnui
 4F43:0EC9 idle  @Ek251$qcnui
 4F43:0EFD idle  @Ek252$qcnui
 4F43:0F31 idle  @Ek253$qcnui
 4F43:0F65 idle  @Ek254$qcnui
 4F43:0F87 idle  @Ek255$qcnui
 4F43:0FAA idle  @Ek2551$qcnui
 4F43:0FD4 idle  @Ek2553$qcnui
 4F43:107E idle  @Ek2554$qcnui
 4F43:10A8 idle  @Ek2555$qcnui
 4F43:10D7 idle  @Ek3$qcnui
 4F43:114F idle  @Ek31$qcnui
 4F43:1183 idle  @Ek32$qcnui
 4F43:11B7 idle  @Ek33$qcnui
 4F43:11F2 idle  @Ek34$qcnui
 4F43:1266 idle  @Ek35$qcnui
 4F43:12B1 idle  @Ek351$qcnui
 4F43:12E5 idle  @Ek352$qcnui
 4F43:1319 idle  @Ek353$qcnui
 4F43:134D idle  @Ek354$qcnui
 4F43:136F idle  @Ek355$qcnui
 4F43:1392 idle  @Ek3551$qcnui
 4F43:13BC idle  @Ek3553$qcnui
 4F43:1466 idle  @Ek3554$qcnui
 4F43:1490 idle  @Ek3555$qcnui
 4F43:14BF idle  @Ek4$qcnui
 4F43:1537 idle  @Ek41$qcnui
 4F43:156B idle  @Ek42$qcnui
 4F43:159F idle  @Ek43$qcnui
 4F43:15DA idle  @Ek44$qcnui
 4F43:164E idle  @Ek45$qcnui
 4F43:1699 idle  @Ek451$qcnui
 4F43:16CD idle  @Ek452$qcnui
 4F43:1701 idle  @Ek453$qcnui
 4F43:1735 idle  @Ek454$qcnui
 4F43:1757 idle  @Ek455$qcnui
 4F43:177A idle  @Ek4551$qcnui
 4F43:17A4 idle  @Ek4553$qcnui
 4F43:184E idle  @Ek4554$qcnui
 4F43:1878 idle  @Ek4555$qcnui
 4F43:18A7 idle  @Ek5$qcnui
 4F43:191F idle  @Ek51$qcnui
 4F43:1953 idle  @Ek52$qcnui
 4F43:1987 idle  @Ek53$qcnui
 4F43:19C2 idle  @Ek54$qcnui
 4F43:1A36 idle  @Ek55$qcnui
 4F43:1A81 idle  @Ek551$qcnui
 4F43:1AB5 idle  @Ek552$qcnui
 4F43:1AE9 idle  @Ek553$qcnui
 4F43:1B1D idle  @Ek554$qcnui
 4F43:1B3F idle  @Ek555$qcnui
 4F43:1B62 idle  @Ek5551$qcnui
 4F43:1B8C idle  @Ek5553$qcnui
 4F43:1C36 idle  @Ek5554$qcnui
 4F43:1C60 idle  @Ek5555$qcnui
 5593:0281 idle  @Ep0$qcnui
 5593:02B9 idle  @Ep1$qcnui
 5593:02EC idle  @Ep2$qcnui
 5593:031F idle  @Ep3$qcnui
 5593:035A idle  @Ep4$qcnui
 5593:03CD idle  @Ep5$qcnui
 5593:0417 idle  @Ep51$qcnui
 5593:044A idle  @Ep52$qcnui
 5593:047D idle  @Ep53$qcnui
 5593:04B0 idle  @Ep54$qcnui
 5593:04CD idle  @Ep55$qcnui
 5593:04F4 idle  @Ep551$qcnui
 5593:051B idle  @Ep553$qcnui
 5593:0542 idle  @Ep5531$qcnui
 5593:0569 idle  @Ep5532$qcnui
 5593:0590 idle  @Ep5533$qcnui
 5593:05B7 idle  @Ep5534$qcnui
 5593:05DE idle  @Ep554$qcnui
 5593:0605 idle  @Ep5545$qcnui
 56D8:0519       @EraseErr$qv
 22F2:0C9D       @EraseTabl$qv
 56D8:067C       @EraseWarning$qv
 56D8:06BB       @EraseWind$qv
 1C5E:1333       @erpac$qii
 3B0A:0E66       @error$qi
 538D:195A       @FhAllUnlink$qcnuinc
 538D:121A       @FhCopFile$qcnuinc
 538D:1E12       @FhProtect$qcnuinc
 538D:1B33       @FhRename$qcnuinc
 538D:1078       @FhRoot$qcnct2
 538D:1526       @FhSwapDir$qcnuinc
 538D:1639       @FhSwIst$qcnuinc
 538D:1750       @FhUnlink$qcnuinc
 59D7:0ADB       @filebuf@$bctr$qi
 59D7:096E       @filebuf@$bctr$qv
 59D7:0C49       @filebuf@$bdtr$qv
 59D7:08C0       @filebuf@close$qv
 59D7:0E91       @filebuf@open$qnxcii
 647B:175E       @filebuf@openprot
 59D7:0D41       @filebuf@overflow$qi
 59D7:10BD       @filebuf@seekoff$ql12ios@seek_diri
 59D7:0FF8       @filebuf@setbuf$qnci
 59D7:1273       @filebuf@sync$qv
 59D7:143D       @filebuf@underflow$qv
 538D:000B       @FileHanding$q16FILE_HAND_METHODul
 56A4:000B idle  @FileName$qucnui
 574B:021C idle  @FindNextData$qv
 574B:0383 idle  @FindParam$qi
 538D:1067 idle  @FlopOff$qv
 4ED1:0280       @FreeMesage$qnnnc
 59D7:15F8       @fstreambase@$bctr$qnxcii
 59D7:17B9       @fstreambase@$bdtr$qv
 59D7:193F       @fstreambase@open$qnxcii
 52D6:000C       @F_S_Print$qii
 523A:0007       @Geometr$qiinlxnc10SwitchFont15SwitchArrayType
 515D:0708       @GetComLine$qnc
 538D:1FEA       @GetDirFileName$qnc
 52AA:000B       @GetDNCcod$qv
 51D8:0004       @Getscancod$qqive
 51D8:04DB idle  @GetSimb$qv
 515D:0050       @GetsScr$qcnct2uinqnct1ui$v
 52AB:00A4       @IbmError$qqive
 59D7:19A9       @ifstream@$bctr$qnxcii
 59D7:1C10       @ifstream@$bdtr$qv
 56D8:018D idle  @InitScr$quc
 51D8:05B7       @Inkey$qv
 59D7:3E38       @ios@$bctr$qv
 59D7:3EE9       @ios@$bdtr$qv
 647B:1942       @ios@adjustfield
 647B:193E       @ios@basefield
 59D7:3DFA       @ios@clear$qi
 647B:1946       @ios@floatfield
 59D7:4053       @ios@init$qn9streambuf
 647B:194A idle  @ios@nextbit
 59D7:40B3       @ios@setf$ql
 59D7:417A       @ios@setstate$qi
 647B:A676 idle  @ios@stdioflush
 59D7:41AA       @ios@tie$qn7ostream
 647B:194E idle  @ios@usercount
 59D7:046B idle  @Iostream_delete$qv
 59D7:1E72       @istream@$bctr$qv
 59D7:21F0       @istream@$bdtr$qv
 59D7:24D4       @istream@$brsh$qmi
 59D7:27FE       @istream@$brsh$qml
 59D7:2427       @istream@eatwhite$qv
 59D7:20EE       @istream@ipfx$qi
 59D7:2A1F       @istream@read$qnci
 59D7:1E4E       @istream_withassign@$basg$qn9streambuf
 59D7:1F91       @istream_withassign@$bctr$qv
 59D7:22D8       @istream_withassign@$bdtr$qv
 538D:0F7A idle  @IstSwitch$qc
 510B:000A       @Jog$qc
 56D8:0322       @Line$qucucucuc
 0B71:00B5 idle  @LoadQParameter$qv
 4C01:01AF       @LoadTabKorr$qv
 4C01:03E8       @LoadTabNull$qv
 4C01:000D       @LoadTehParam$qv
 56D8:01DD       @MainBord$quc
 23F7:00A7       @Mistake$qv
 4EFD:0120 idle  @Mn0$qnui
 4EFD:01E0 idle  @Mn1$qcnui
 4EFD:0252 idle  @Mn3$qcnui
 4EFD:0347 idle  @Mn31$qnui
 4EFD:0380 idle  @Mn32$qnui
 4EFD:03AF idle  @Mn33$qnui
 4EFD:03E7 idle  @Mn34$qnui
 4EFD:0425 idle  @Mn35$qnui
 538D:09AB idle  @NewCatalog$qv
 52AB:01C9 idle  @NullFun$qqive
 23C3:000B       @ob_in$qv
 22F2:004A       @ob_kon$qc
 227D:0041       @ob_kon2$qc
 2249:0013       @ob_out$qv
 59D7:2B37       @ostream@$bctr$qv
 59D7:2DAD       @ostream@$bdtr$qv
 59D7:314C       @ostream@$blsh$ql
 59D7:32CA idle  @ostream@$blsh$qul
 59D7:33E0       @ostream@do_opfx$qv
 59D7:3423       @ostream@do_osfx$qv
 59D7:300E       @ostream@flush$qv
 59D7:347B       @ostream@outstr$qnxct1
 59D7:3773       @ostream@write$qnxci
 59D7:2B07       @ostream_withassign@$basg$qn9streambuf
 59D7:2C50       @ostream_withassign@$bctr$qv
 59D7:2EBF       @ostream_withassign@$bdtr$qv
 0BA5:0137       @Otl$qcnui
 1FBB:0005       @outqup$qv
 58B0:0350 idle  @ParAxis@hashValue$xqv
 58B0:0348 idle  @ParAxis@isA$xqv
 58B0:0357 idle  @ParAxis@isEqual$xqmx6Object
 58B0:030A idle  @ParAxis@nameOf$xqv
 58B0:0314 idle  @ParAxis@printOn$xqm7ostream
 58B0:038F idle  @ParData@$bctr$qv
 58B0:03C6 idle  @ParData@clear$qv
 52AB:0206 idle  @Password$qv
 56D8:0121       @PrintErr$qxnce
 52AB:0243       @PrintFreeMem$qv
 56D8:057B       @PrintNode$qnc
 523A:057E       @PrintShp$qiii
 515D:0363       @PrntEds$qnct1ui
 538D:0861 idle  @ProFile$qv
 523A:0511       @PutBig$qucucc
 58B0:046D idle  @QParameter@$bctr$qnxc
 58B0:0406 idle  @QParameter@$bctr$qv
 647B:0B74       @QParameter@3
 58B0:02CD idle  @QParameter@calcConst$qv
 58B0:0073 idle  @QParameter@calcQ100$qv
 58B0:022B idle  @QParameter@calcQ1000$qv
 58B0:0230 idle  @QParameter@calcQ4000$qv
 58B0:02C8 idle  @QParameter@calcQ6000$qv
 58B0:0618 idle  @QParameter@clear$qv
 58B0:068E idle  @QParameter@hashValue$xqv
 647B:0B32 idle  @QParameter@headerPar
 58B0:0686 idle  @QParameter@isA$xqv
 58B0:0695 idle  @QParameter@isEqual$xqmx6Object
 58B0:051A idle  @QParameter@load$qnxc
 58B0:0648 idle  @QParameter@nameOf$xqv
 58B0:0652 idle  @QParameter@printOn$xqm7ostream
 4ED1:000B       @ReadMsg$qnnncxnc
 538D:078E idle  @RenFile$qnc
 538D:0208 idle  @ReqAccess$qn6DEVICE
 515D:06E2 idle  @ReqClear$qv
 515D:04FB       @ReqGet$qnc
 515D:06F5       @ReqNameNotSaved$qv
 515D:0414       @ReqSaveProgName$qnc
 515D:04C0       @ReqSaveProgStr$qnc
 515D:048B       @ReqSaveQuanSkip$qnc
 515D:044E       @ReqSaveSubrName$qnc
 52AB:0274       @ResetMenu$qcc
 52AB:0298       @ResetWind$qcc
 52D6:08B7 idle  @RevolShpind$qv
 56D8:03A5       @RolWind$qiiii8ScrolDir
 515D:0750       @SaveComLine$qnc
 52D6:04C3       @Scale$qxncuiui
 58B0:0AB9 idle  @Serial@$basg$qm12ComPortsData
 58B0:0B14 idle  @Serial@$basg$qm6Serial
 515D:0344       @SetCursPosition$qnc
 52AB:0165       @SetError$qucucucuc7StatFid
 5123:0023 idle  @Setting$quc
 0000:5793       @set_new_handler$qnqv$v
 0000:6D4D idle  @set_terminate$qnqv$v
 0000:6E4A idle  @set_unexpected$qnqv$v
 5791:03B8       @Shell$qv
 538D:0AEF idle  @ShowCatalog$qnc
 2517:0033       @StatWindow$qv
 59D7:3814       @streambuf@$bctr$qv
 59D7:3A91       @streambuf@$bdtr$qv
 59D7:37C7       @streambuf@doallocate$qv
 59D7:3931       @streambuf@do_sgetn$qnci
 59D7:3901       @streambuf@do_snextc$qv
 59D7:39E9       @streambuf@do_sputn$qnxci
 59D7:3B22       @streambuf@overflow$qi
 59D7:3B2A       @streambuf@pbackfail$qi
 59D7:3CCD       @streambuf@seekoff$ql12ios@seek_diri
 59D7:3CD8       @streambuf@seekpos$qli
 59D7:3B62       @streambuf@setb$qnct1i
 59D7:3B32       @streambuf@setbuf$qnci
 59D7:3C12       @streambuf@setg$qnct1t1
 59D7:3C7D       @streambuf@setp$qnct1
 59D7:3CFF       @streambuf@sputn$qnxci
 59D7:3D73       @streambuf@sync$qv
 59D7:3DC3       @streambuf@underflow$qv
 5DF8:0008       @string@$bctr$qmx6string
 5DF8:00F1       @string@$bctr$qnxc
 5DF8:030D       @string@$bdtr$qv
 5DF8:0394 idle  @string@assert_element$xqui
 5DF8:0452 idle  @string@assert_index$xqui
 647B:1CC6 idle  @string@case_sensitive
 647B:1CD0 idle  @string@freeboard
 647B:1CCC idle  @string@initial_capac
 5DF8:0AA2 idle  @string@initial_capacity$qui
 5DF8:0AE9 idle  @string@max_waste$qui
 647B:1CC8 idle  @string@paranoid_check
 647B:1CCE idle  @string@resize_inc
 5DF8:0ABF idle  @string@resize_increment$qui
 5DF8:0A4B idle  @string@set_case_sensitive$qi
 5DF8:0A68 idle  @string@set_paranoid_check$qi
 647B:1CCA idle  @string@skip_white
 5DF8:0A85 idle  @string@skip_whitespace$qi
 538D:0FCE idle  @SwapDev$qv
 5123:02CB       @Swichcod$qcnui
 5123:00F4 idle  @Swicher$qc
 52D6:00B5 idle  @SwitchFeed$qii
 4A1E:0008       @taim$qqive
 0C01:003E       @Ted$q7TEDMODEulc
 4C64:000B       @TedChange$q13TEDCHANGEMODEc
 4BEF:000C       @TedMain$qcnuincn6TABARR
 0000:6D43 idle  @terminate$qv
 56A4:0172       @TextWind$qucxnc6Invers
 52AB:020E       @Timer$qui
 2676:0BCD idle  @trans_tool$qiiinc
 5DF8:05CB       @TStringRef@$bctr$qnxcuit1uiui
 5DF8:06B4       @TStringRef@$bdtr$qv
 5DF8:0783 idle  @TStringRef@check_freeboard$qv
 5DF8:07EB idle  @TStringRef@grow_to$qui
 5DF8:0715 idle  @TStringRef@reserve$qui
 5DF8:084D idle  @TStringRef@round_capacity$qui
 5DF8:088C idle  @TStringRef@splice$quiuinxcui
 5DF8:0510 idle  @TSubString@assert_element$xqui
 0000:A2BF idle  @typeinfo@0$basg$qmx8typeinfo
 0000:A251 idle  @typeinfo@0$bctr$qmx8typeinfo
 0000:A2CE idle  @typeinfo@0$bdtr$qv
 0000:A303 idle  @typeinfo@0$beql$xqmx8typeinfo
 0000:A334 idle  @typeinfo@0$bneq$xqmx8typeinfo
 0000:A356 idle  @typeinfo@0before$xqmx8typeinfo
 0000:A3CD idle  @typeinfo@0name$xqv
 0000:6E41 idle  @unexpected$qv
 56D8:043C       @Window$qucucucuc
 56A4:02BF idle  @Windows$q6Invers
 538D:0EC1 idle  @WriteDir$qn5ffblkn4FILE
 23F7:11C0 idle  @wr_kod$qi
 0000:6FDE       @xalloc@$bctr$qmx6stringui
 0000:705D       @xalloc@raise$qv
 1290:0006       @xellips$qv
 2C85:1671       @xg33$qv
 2C85:1910       @xg99$qv
 1290:000B       @xhyperbola$qv
 2C85:0C79       @xkonuss$qv
 2C85:107E       @xkrugcyl$qv
 2C85:09AD       @xlincyl$qv
 0000:747E idle  @xmsg@$basg$qmx4xmsg
 0000:72D4       @xmsg@$bctr$qmx4xmsg
 0000:7209       @xmsg@$bctr$qmx6string
 0000:737F       @xmsg@$bdtr$qv
 0000:7402 idle  @xmsg@raise$qv
 1290:0001       @xparabola$qv
 1290:0010       @xsin$qv
 2C85:1345       @xvint$qv
 2218:0009 idle  @zapic$qv
 0000:8D1D       @_CatchCleanup$qv
 0000:85AE idle  @_ReThrowException$quinuc
 0000:8555       @_ThrowException$qnvt1t1t1uiuiuinuc
 0000:A6B4 idle  @__DynamicCast$qnvt1t1t1i
 0000:6EE4       @__GetPolymorphicDTC$qnvui
 0000:6F38 idle  @__GetPolymorphicDTCfar$qnvui
 0000:A3E7 idle  @__GetTypeInfo$qnvt1t1t1
 0000:7619       @__RefDestructorCount$qv
 0000:761F idle  @__RefExceptionList$qv
 0000:A23F idle  @__ThrowExceptionName$qv
 0000:A21F idle  @__ThrowFileName$qv
 0000:A231 idle  @__ThrowLineNumber$qv
 647B:0000 idle  DATASEG@
 0000:026D idle  DGROUP@
 597B:04E0       e087_Entry
 597B:05A3       e087_Shortcut
 597B:003F       e087_Trap
 0000:0000 idle  FIARQQ
 0000:0000 idle  FICRQQ
 0000:0000  Abs  FIDRQQ
 0000:0000  Abs  FIERQQ
 0000:0000  Abs  FISRQQ
 0000:0000  Abs  FIWRQQ
 0000:0000 idle  FJARQQ
 0000:0000 idle  FJCRQQ
 0000:0000  Abs  FJSRQQ
 0000:145A idle  FTOL@
 0000:5339       F_FDIV@
 0000:537F       F_FDIVR@
 0000:145A       F_FTOL@
 0000:4E0F idle  F_LDIV@
 0000:4E1E idle  F_LMOD@
 0000:4E16       F_LUDIV@
 0000:4E26       F_LUMOD@
 0000:4EBD       F_LXLSH@
 0000:4DF5       F_LXMUL@
 0000:4EDE       F_LXURSH@
 0000:5F6B idle  F_PADA@
 0000:5FF3 idle  F_PADD@
 0000:5FAF idle  F_PSBA@
 0000:6053 idle  F_PSBP@
 0000:6022 idle  F_PSUB@
 0000:4E0F idle  LDIV@
 0000:4E1E idle  LMOD@
 0000:4E16 idle  LUDIV@
 0000:4E26 idle  LUMOD@
 0000:4EBD idle  LXLSH@
 0000:4DF5 idle  LXMUL@
 0000:4EDE idle  LXURSH@
 0000:5316 idle  N_FDIV@
 0000:535C idle  N_FDIVR@
 0000:4E0C idle  N_LDIV@
 0000:4E1B idle  N_LMOD@
 0000:4E13       N_LUDIV@
 0000:4E23 idle  N_LUMOD@
 0000:4EBA       N_LXLSH@
 0000:4EFC       N_LXMUL@
 0000:4EDB idle  N_LXURSH@
 0000:5F68       N_PADA@
 0000:5FF0       N_PADD@
 0000:6078       N_PCMP@
 0000:5FAC idle  N_PSBA@
 0000:6050       N_PSBP@
 0000:601F idle  N_PSUB@
 0000:6099       N_SCOPY@
 0000:5F6B idle  PADA@
 0000:5FF3 idle  PADD@
 0000:5FAF idle  PSBA@
 0000:6053 idle  PSBP@
 0000:6022 idle  PSUB@
 0000:61D4       _abort
 647B:61E0 idle  _acc
 647B:61CC idle  _acc1
 647B:61D6 idle  _acc2
 0000:3084       _access
 647B:93A4       _adr_b
 647B:5448       _AllAxIndicated
 647B:21B2       _Atab
 0000:05F9       _atan
 0000:61E8 idle  _atexit
 0000:0492       _atof
 0000:5493 idle  _atoi
 0000:541E       _atol
 647B:0C12 idle  _atr1
 647B:0C13 idle  _atr3
 647B:20F6 idle  _avport
 647B:7A80 idle  _ax
 647B:A254       _AxActive
 647B:6302       _axn
 647B:9F80       _ax_on
 647B:0C14 idle  _bar1
 647B:4CEA       _BigFont
 0000:1486       _bioscom
 647B:8365       _bitmap
 647B:0C20 idle  _blanks
 647B:9F82       _blmove
 647B:9F90       _blokMO
 647B:A26E idle  _buf
 647B:7BD6       _byff
 647B:93A0 idle  _c
 647B:5F0E idle  _c1
 647B:5F16 idle  _c2
 0000:5C99       _calloc
 647B:A006       _cap0
 647B:A174 idle  _cap0_z
 647B:7C3A idle  _ccv
 647B:A260 idle  _ced
 647B:6FF8       _cent
 647B:A612 idle  _cerr
 647B:0C24 idle  _change_flag
 647B:1E30 idle  _chcom1
 0000:309E       _chmod
 647B:A266 idle  _chp
 647B:A5B8 idle  _cin
 647B:A63E       _clog
 0000:30EC       _close
 0000:1538       _clreol
 0000:156B       _clrscr
 647B:0A8C       _CNC_Screen
 647B:1F4C idle  _cntout
 647B:1F4A idle  _cntq
 647B:2108 idle  _COD
 647B:1E86       _codcap
 647B:4CE4       _CodKey
 647B:61BE       _com
 647B:4D96       _CompilMesage
 647B:4CD6       _Config
 647B:77DA       _cont
 647B:A25C       _ContrReg
 647B:A212 idle  _ConturOut
 0000:5EAA       _coreleft
 0000:0F7A       _cos
 647B:A5E6       _cout
 0000:172E       _cprintf
 0000:174C       _cputs
 647B:4CD2       _CurentMsg
 647B:4D04       _CurFile
 647B:A27A idle  _curpage
 647B:A27E idle  _curptr
 647B:A282 idle  _curptr1
 647B:4CFF       _CursPosition
 647B:0C02 idle  _curx
 647B:0C04 idle  _cury
 647B:0AF2       _cval
 647B:0C08 idle  _cx1
 647B:0C0A idle  _cy1
 647B:A25A       _DataReg
 647B:0C4A       _DataRPS
 647B:0C4C       _DatCOM1
 647B:8364       _date
 647B:1E28 idle  _date1
 647B:1E2A idle  _date2
 647B:61B6 idle  _delta
 647B:5AF6       _differ
 647B:1F54       _dir
 647B:1F74       _dirs
 647B:7620       _distan2
 647B:9B0A       _dluft
 647B:83F8 idle  _dop_ykz
 647B:0C00       _DriveBlk
 647B:9FA2       _drives
 647B:1FBC       _dron
 647B:1FEE       _dx
 647B:9ACA       _dxmod
 647B:9D6A       _dxnum
 647B:200E       _dxold
 647B:9A8A       _dxpoz
 647B:1E46       _dxstep
 647B:939C idle  _e
 0000:04AB idle  _ecvt
 647B:734A       _ef
 647B:6276       _efa
 647B:7372       _efeok
 647B:626C       _efkdin
 647B:62D0 idle  _efname
 647B:6C16       _efnstr
 647B:6258       _efrazg
 647B:6262       _efsnig
 647B:624E       _eftorm
 647B:63BA       _eindex
 647B:6D28       _ekl
 647B:55F6       _elast
 647B:A272 idle  _endbuf
 647B:A276 idle  _endbufm
 647B:9CDE idle  _endin
 647B:1FC0       _endout
 647B:668C       _enext
 647B:62F8       _enomp
 647B:6C0C       _enompb
 0000:467A       _eof
 647B:7592       _eprdin
 647B:7594 idle  _eprdin1
 647B:7590       _eprkv
 647B:7628       _err
 647B:007E       _errno
 647B:0C2E       _error_1
 647B:0C2C       _error_a
 647B:63EC       _es
 647B:63C4       _esindex
 647B:63AC       _estask
 647B:63A2       _etask
 0000:6278       _exit
 647B:737A       _exl25
 647B:747A       _exl26
 647B:0AE8       _exp_s
 647B:73FA       _exr25
 647B:74FA       _exr26
 647B:4D00       _Extention
 647B:7642 idle  _e_int
 0000:0608       _fabs
 0000:5EB4       _farcalloc
 0000:5E5A       _farcoreleft
 0000:59A7       _farfree
 0000:5ABB       _farmalloc
 0000:5C1F idle  _farrealloc
 647B:1E32 idle  _fbuf
 0000:3118       _fclose
 647B:098E       _FCur
 647B:0BB6 idle  _FCurVG
 0000:04E6       _fcvt
 647B:9BA6       _fek
 647B:9CE2 idle  _feks
 0000:31D9       _fflush
 0000:483F       _fgetc
 0000:4941 idle  _fgetchar
 0000:32B4       _fgets
 647B:7B2E       _fgs
 647B:4D84       _Fh
 647B:9902       _fi
 647B:72F0       _fi1
 647B:7318       _fi2
 647B:A2E4 idle  _FILED
 647B:A28A idle  _fileh
 647B:4CFE       _FilePointer
 647B:A28C idle  _file_path
 647B:A2AC idle  _file_path1
 0000:46F8       _findfirst
 0000:472F       _findnext
 647B:A330       _find_vk
 647B:79BC       _first_k
 647B:4CE2       _Flag
 647B:0C10 idle  _flsym
 0000:33A5 idle  _flushall
 647B:7B2A       _fmf
 647B:7B1A       _fmg
 0000:3437       _fnmerge
 647B:61E2 idle  _fnomk
 0000:3466       _fnsplit
 647B:77E2       _fnstr1
 647B:7B0E       _fo
 0000:368F       _fopen
 647B:9B4A       _fost
 647B:7B0A       _fp
 647B:7B32       _fpi
 647B:7B1E       _fpp
 647B:7B16 idle  _fpp1
 647B:0B9E       _Fpri
 0000:36C8       _fprintf
 647B:9796       _Fproc
 0000:3AE4       _fputc
 0000:3C7F idle  _fputchar
 0000:36E8       _fputs
 0000:59A7       _free
 0000:373D       _fscanf
 0000:37EF       _fseek
 647B:9CE4       _fslow
 647B:9FF2 idle  _fstr
 647B:93AE idle  _fstrop
 647B:A0F0 idle  _fstr_z
 647B:9B96       _ftakt
 647B:9B9E       _ftask
 0000:3874       _ftell
 647B:7B26       _ftt
 647B:83F4 idle  _full
 647B:A268 idle  _fun
 647B:988E       _fway
 647B:A4F4       _f_6
 647B:9900       _f_ind
 647B:5EFE       _f_tz
 647B:75D6       _g
 647B:61A6       _gam
 647B:61AE       _gam1
 0000:2015       _getch
 0000:2035 idle  _getche
 0000:6495       _getenv
 0000:184A       _gettext
 0000:1D64       _gettextinfo
 0000:62DE       _getvect
 647B:75A2       _gf
 647B:61C4       _gg
 647B:61C8       _gk
 0000:17FD       _gotoxy
 647B:82EA       _gs
 647B:4CEE       _HandMax
 647B:7D6A       _hf
 647B:5F3E       _hf1
 0000:15DD idle  _highvideo
 647B:0ADE       _ib
 647B:0B24       _ibf
 647B:0B26       _ibfp
 647B:7A04       _ibfp1
 647B:77E0       _ibm
 647B:759E       _ibr
 647B:9F6C       _idr
 647B:7640       _ierr
 647B:7D3E       _ii_05
 647B:7D46       _ii_19
 647B:7D4E       _ii_46
 647B:9D0E       _ik
 647B:760A       _ik1
 647B:760C       _ik2
 647B:760E idle  _ik3
 647B:1E3E idle  _ikk
 647B:0AE0       _im
 647B:A520       _imf
 647B:1E2C idle  _imm
 647B:9F6E idle  _inax
 647B:1F48 idle  _incnc
 647B:61C2 idle  _ind
 647B:20FC idle  _indc
 647B:0996       _InDev
 647B:2124 idle  _indmas
 647B:20FB idle  _indsh
 647B:20FA idle  _indst
 647B:93A8       _ind_b
 647B:93AA       _ind_b1
 647B:0ADA       _ind_x
 647B:A31C       _inform
 0000:6127 idle  _inp
 0000:60FE       _inport
 0000:610B       _inportb
 0000:611A idle  _inpw
 647B:0C0C idle  _insflag
 647B:1E2E idle  _insh
 0000:699A       _int86
 0000:69CF idle  _int86x
 0000:6A69       _intdos
 0000:6A9B idle  _intdosx
 647B:211C idle  _intt
 647B:0B18       _io
 0000:4D5E       _ioctl
 647B:7610       _ip1
 647B:7612       _ip2
 647B:1E40 idle  _ipr
 647B:9F70       _ird
 647B:0ADC       _is
 647B:1E36       _is1
 647B:1E38       _is2
 0000:25F8       _isatty
 647B:1E3A idle  _isc1
 647B:1E3C idle  _isc2
 647B:4CE7       _IstError
 0000:53A2       _itoa
 647B:7D36       _I_A
 647B:7D1A       _I_D
 647B:A53A       _I_ER
 647B:7D2A       _I_F
 647B:7D3C       _I_G
 647B:7D22       _I_H
 647B:7D1C       _I_I
 647B:7D1E       _I_J
 647B:7D20       _I_K
 647B:7D3A       _I_M
 647B:7D28       _I_N
 647B:0AB0 idle  _i_nab
 647B:7D38       _I_P
 647B:7D26       _I_Q
 647B:7D24       _I_R
 647B:7D2C       _I_S
 647B:7D34       _I_T
 647B:0C52       _i_time
 647B:7CF8       _I_X
 647B:2116 idle  _jb
 647B:2118 idle  _jb0
 647B:211A idle  _jb1
 647B:1E42 idle  _jpr
 647B:615E idle  _ka1
 647B:6166 idle  _ka2
 647B:53A4       _Kb
 647B:616E idle  _kb1
 647B:6176 idle  _kb2
 0000:2089       _kbhit
 647B:615A       _kf
 647B:72A0       _kf1
 647B:72C8       _kf2
 647B:1F4E idle  _kin
 647B:1E44 idle  _klpr
 647B:4CE6       _KlsError
 647B:8362       _KO
 647B:60DA       _koef
 647B:77DE       _kolc
 647B:2106 idle  _kolst
 647B:77DC       _kolt
 647B:79C0       _kop
 647B:0184       _KorTabl
 647B:7D72       _kor_d
 647B:1F50 idle  _kout
 647B:9F96       _kprkv
 647B:9F88       _ktask
 647B:9F8A       _ktasks
 647B:61EE       _kv_x
 647B:2148       _kwcnc
 647B:617E idle  _kx
 647B:6186 idle  _ky
 647B:A4FC       _k_6
 647B:0B98 idle  _k_sum
 647B:0B16       _k_vk
 0000:4F13       _labs
 647B:6C20       _last
 647B:780A       _le2
 647B:6CA0 idle  _lkl
 647B:690C idle  _lnextc
 0000:4D8B idle  _localeconv
 647B:20F8 idle  _lon
 0000:15E7 idle  _lowvideo
 0000:260D       _lseek
 0000:53F2       _ltoa
 647B:9F76       _ltorm
 647B:9F78       _ltorm1
 647B:0B1A       _lwp
 647B:7A14       _m1
 647B:7A28       _m1_vk
 647B:7A1E       _m2
 647B:7A33       _m2_vk
 647B:0AFA       _maf
 4B14:0018       _main
 0000:5AB1       _malloc
 647B:9F92       _MASKI
 647B:9F94       _MASKP
 647B:2104 idle  _MAXP
 647B:9BAE       _maxsost
 647B:2102 idle  _MAXST1
 647B:7838       _mb
 0000:212C       _memcmp
 0000:2154       _memcpy
 0000:2213       _memmove
 0000:219E       _memset
 647B:4CDE       _Mesage
 647B:7A90       _mf1
 647B:7AC7       _mf2
 647B:A286 idle  _mfl
 647B:7F4A       _mg
 647B:7832       _mib
 647B:1FC8 idle  _minsum
 647B:77D8       _mir
 647B:2114 idle  _mnint
 647B:1FCE       _mnul
 647B:7C94       _mo1
 647B:7CC6       _mo2
 647B:0995       _Mode
 647B:4D88       _ModesA
 647B:4D8A       _ModesD
 647B:4D8C       _ModesE
 647B:4D8E       _ModesK
 647B:4D86       _ModesM
 647B:4CDA       _ModeTool
 0000:0FCC       _modf
 647B:9F74       _move
 0000:1912       _movetext
 0000:21C1 idle  _movmem
 647B:036C       _MparTabl
 647B:9F9C idle  _MQUIT
 647B:7E00       _mr
 647B:217A       _msavr
 647B:096C       _MSCAP
 647B:9D8A       _msdrive
 647B:0984       _MSEE
 647B:9F4A       _mshard
 647B:9E6A       _msnax
 647B:214A       _msstat
 647B:214C       _msstat1
 647B:214E       _msstat2
 647B:0974 idle  _MSXRD
 647B:097C idle  _MSXRS
 647B:1FCC       _mtest
 647B:1FCD idle  _mtest1
 647B:0ABC       _mtf
 647B:4D92       _MulticA
 647B:4D91       _MulticD
 647B:4D90       _MulticM
 647B:79B4       _name2_kpp
 647B:83E4       _namex1
 647B:7856       _name_fo
 647B:7860       _name_kpp
 647B:A53C       _name_p
 647B:7B86       _name_pp
 647B:7DFA idle  _name_yp
 647B:7AFE       _nam_vk
 647B:9D1E       _nax
 647B:9D3E       _naxp
 647B:A2DC idle  _nbeg
 647B:A1EA       _ncpc
 647B:640C       _nextc
 647B:6B8C idle  _nextcf
 647B:9D5E       _nf
 647B:A2CE idle  _nfe
 647B:A2CC idle  _nflag
 647B:9D60       _nfp
 647B:2126 idle  _nimp
 647B:7340       _nlin
 647B:7584       _nombf
 647B:77D6       _nomf
 647B:0B1C idle  _nomk
 647B:757A       _nomkf
 647B:77D4       _nomn
 647B:7A00       _noms
 647B:7A02       _noms1
 647B:7A88       _nomst
 647B:75A0 idle  _nomyp
 647B:7A10       _nom_simv
 647B:7A12       _nom_simvo
 647B:7A06 idle  _nom_simv_pp
 0000:15F1 idle  _normvideo
 647B:1EA6       _nrastr
 647B:2100       _NS
 647B:9D62       _ns
 647B:210C idle  _nst
 647B:A2D4 idle  _nstep
 647B:9FEE idle  _nstr
 647B:6280       _nstrop
 647B:9398 idle  _nstrpar
 647B:A0EE idle  _nstr_z
 647B:55F2 idle  _nt
 647B:5F46 idle  _ntc
 647B:0090       _NulTabl
 647B:20FE idle  _NUM66
 647B:0994 idle  _NumbS
 647B:4CE5       _NumError
 647B:A264 idle  _numstr
 647B:7928 idle  _num_kpp
 647B:61C0       _num_kv
 647B:79B8 idle  _num_ps
 647B:939A idle  _nword
 647B:A2E8       _nzvk
 647B:A2F2       _nzvk1
 647B:A2FC       _nzvk2
 647B:A306       _nzvk3
 647B:783E       _n_beg
 647B:61EC idle  _n_ch
 647B:784E       _n_kol
 647B:7846       _n_kon
 647B:0B12       _n_vk
 647B:63B6       _ogr25
 647B:63B8       _ogr26
 647B:9FFE       _okey
 647B:A172 idle  _okey_z
 647B:A26A idle  _oldcurp
 647B:4D85 idle  _OldCurs
 647B:4D94       _OldModus
 647B:0C06 idle  _oldx0
 647B:A2D2 idle  _oneflag
 0000:4986       _open
 647B:1F46 idle  _outcnc
 647B:09A0       _OutDev
 0000:6166 idle  _outp
 0000:6136       _outport
 0000:6146       _outportb
 0000:6156 idle  _outpw
 647B:A51E       _par
 61B2:0000       _Par
 647B:0C0E idle  _parflag
 647B:0278       _ParTabl
 647B:7A3E       _pcerr
 647B:A1C2       _pcnc
 647B:9F9E       _pdrive
 0000:3A2B idle  _perror
 647B:7B12       _pf
 647B:761A       _ph
 647B:761C       _ph1
 647B:761E       _ph2
 647B:9F8C       _pktask
 647B:6052       _pm
 647B:1FBE       _pnul
 647B:1FBF       _pnul1
 647B:5F52       _polar
 647B:5FD2       _polm
 647B:6056       _polt
 647B:7D56       _pol_m
 647B:0BFE       _PosSwitch
 647B:9FD8       _pout
 0000:106E       _pow
 0000:0EBD       _pow10
 647B:7B36       _ppp
 647B:9F86       _pptask
 647B:79CC       _pro
 647B:A026       _PROGKV
 647B:A1A2 idle  _PROGKV_z
 647B:79E4       _pros
 647B:0C44       _prr
 647B:620E       _prrazg
 647B:A016       _prxk
 647B:A00E       _prxq
 647B:A00A       _prxr
 647B:A01A       _prxv
 647B:A012       _prxz
 647B:A17C idle  _prx_zk
 647B:A178 idle  _prx_zq
 647B:A176 idle  _prx_zr
 647B:A17E idle  _prx_zv
 647B:A17A idle  _prx_zz
 647B:0AB8       _prz_nam
 647B:0ABA       _prz_nnm
 647B:7614       _ps
 647B:7616       _ps1
 647B:7618       _ps2
 647B:60D6       _pt
 647B:9F84       _ptask
 647B:622E idle  _ptorm
 647B:4CC6       _PtrIbmErr
 647B:4CBE       _PtrNewVect
 647B:4CCE       _PtrNTimer
 647B:4CC2       _Ptroldvect
 647B:4CCA       _PtrTimer
 0000:19BA       _putch
 0000:18AE       _puttext
 647B:0B28       _p_ar
 647B:0B2A       _p_cv
 647B:7B22       _p_pr
 647B:9FAA idle  _qdron
 647B:9FE4       _qstop
 647B:A256 idle  _QuickPort
 647B:5BF6       _rad
 0000:6903       _raise
 0000:8736 idle  _RaiseException
 647B:9FE6       _rass
 647B:9FEA       _rassd
 647B:A06E idle  _rass_z
 647B:A0AE idle  _rass_zd
 647B:6196 idle  _rcos
 647B:7278       _rcrug
 0000:307E       _read
 647B:0B9C idle  _Ready
 0000:5C18       _realloc
 647B:9CE6       _refst
 647B:9D06       _refsts
 647B:4CE8       _RemError
 0000:4C6B       _rename
 647B:A2D0 idle  _repflg
 647B:0C18 idle  _reply
 647B:0C1C idle  _reply1
 647B:A252       _ReqQuKey
 647B:0B9A idle  _ResetReady
 647B:1F94       _revers
 647B:7DF2       _rfr
 647B:9F98       _rkalibr
 647B:83E2       _rpar
 647B:618E idle  _rsin
 647B:5BFE       _rsm0
 647B:0BA6 idle  _S1pri
 647B:0BAE idle  _S2pri
 647B:79BE       _scnd_k
 647B:83F6       _scom
 647B:0993       _SCur
 0000:6306       _segread
 0000:5F48       _setblock
 0000:2178       _setmem
 0000:3EA9       _setvbuf
 0000:62F1       _setvect
 647B:9FAC       _sfi
 647B:211E idle  _shcikl
 647B:1E34 idle  _sherr
 647B:0AB2       _shet
 647B:1FC4 idle  _shsum
 647B:1FC6       _shtaim
 0000:67D5 idle  _signal
 0000:11FA       _sin
 647B:0AE2       _sko
 647B:0AE4       _skz
 647B:9F72       _sleg
 647B:9CE0 idle  _slovo
 647B:7C42       _slovor
 647B:9B92       _slowost
 647B:9B8A       _slowtorm
 647B:9F7A       _sltorm
 647B:5C7E       _sm0
 647B:098F       _SnCur
 647B:0C46       _sost
 647B:0C48       _sost1
 647B:5F06 idle  _speed
 647B:21A2       _SpeedS
 647B:9FDC       _Spr
 647B:20EE       _spr
 647B:9FE0       _Spr1
 647B:20F2       _spr1
 647B:A05A idle  _Spr1_z
 0000:4319       _sprintf
 647B:979E       _Sproc
 647B:A04A idle  _Spr_z
 647B:A314       _sp_chan
 0000:124C       _sqrt
 647B:0AB6       _ssarif
 0000:439D       _sscanf
 647B:0C34       _sscp
 647B:0AB4       _ssprr
 647B:0C40       _ssrasp
 647B:2120       _sss
 647B:2122 idle  _sss1
 647B:0C36       _sstaim
 647B:0C38       _sstaim1
 647B:0C42       _sswbyff
 647B:0C28       _ssw_sh
 60B2:0000       _st
 647B:0B96       _staskp
 647B:9F8E       _stasks
 647B:0C30       _statk
 647B:0C32       _statk1
 647B:A25E       _StatReg
 647B:A310       _stat_ea
 647B:A312       _stat_in
 647B:0C2A idle  _stat_sc
 647B:216E       _stdrc
 647B:2172       _stdrc0
 647B:A06C idle  _stdrcz
 647B:A06A idle  _stdrc_z
 647B:0BBE       _StepFid
 647B:1EC6       _stime
 647B:1F06       _stimer
 647B:9BB6       _storm
 647B:9B8E       _storm0
 647B:4CBC       _StQuKey
 0000:2238       _strcat
 0000:2277       _strcmp
 0000:22A7       _strcpy
 647B:0C3E       _strk
 0000:22D0       _strlen
 0000:22F1       _strncpy
 0000:20DC       _strpbrk
 0000:2322       _strrev
 0000:2356       _strstr
 0000:05C3       _strtod
 647B:79C2 idle  _str_ful
 647B:7C44       _STR_ZZ
 647B:A01E       _stup
 647B:A180 idle  _stup_z
 647B:1FBA       _stzag
 647B:A50C       _st_ds
 647B:A504       _st_s
 647B:93A2       _sum
 647B:93AC idle  _sumo
 647B:1FC2 idle  _sumpar
 647B:A518       _SUN
 647B:A516       _SUP
 647B:6FA8 idle  _svint
 647B:98AA       _sway
 0000:6BC1       _system
 647B:1F52 idle  _t
 647B:79FC       _tab_kor_d
 647B:79FE       _tab_kor_h
 0000:1290       _tan
 5EBE:0000       _TANG
 647B:A332       _task_vk
 647B:A474       _tek
 647B:5B76       _tekv
 647B:A374       _tek_o
 647B:A3F4       _tek_os
 647B:A434       _tek_vk
 0000:15CE idle  _textattr
 0000:15B1       _textbackground
 0000:1598       _textcolor
 0000:1D41       _textmode
 647B:A51A       _timer
 647B:A51C       _timer1
 647B:0C50 idle  _tim_com1
 647B:0C4E       _tim_rps
 647B:1FB4       _tin
 647B:A522       _tm
 647B:A52A       _tmp
 0000:4D95       _tolower
 647B:0460       _ToolTabl
 0000:4DC5       _toupper
 647B:1FB6       _tout
 647B:A532       _ts
 647B:619E       _turn
 647B:A32C       _tzbr
 647B:A31E       _tzbv
 647B:A320       _tzbv1
 647B:A32A idle  _tzbv_r
 647B:A326       _tzbv_z
 647B:A32E       _tzbz
 647B:7A60       _t_vk
 0000:53D1 idle  _ultoa
 0000:4C8D idle  _ungetc
 0000:2067 idle  _ungetch
 0000:2B87       _unlink
 647B:A514       _uu2
 647B:79C8       _value_cc
 647B:79CA       _value_tc
 647B:0AEA       _val_arf
 647B:79C4       _var_x
 647B:6D20       _vd_vr
 647B:990A       _vkadr
 647B:0AE6 idle  _vri
 0000:433F       _vsprintf
 0000:43C4 idle  _vsscanf
 647B:9BBE       _vtakt
 647B:9C3E       _vtask
 647B:A328       _v_tzbv
 647B:5876 idle  _walk
 647B:2146       _wcnc
 647B:1FCA       _wdrc
 0000:1DCD       _wherex
 0000:1DE0       _wherey
 647B:9FCC       _win
 0000:1DF7       _window
 647B:2176       _wms
 647B:21A0 idle  _wms_z
 647B:9FD0       _wout
 0000:3081       _write
 647B:0C3A       _wwtaim
 647B:0C3C       _wwtaims
 647B:7644       _x
 647B:5F1E idle  _x1
 647B:5F26 idle  _x2
 647B:9FF6       _xabs
 647B:206E       _xabs1
 647B:9FFA       _xabsd
 647B:A0F2 idle  _xabs_z
 647B:A132 idle  _xabs_zd
 647B:219C       _xavar
 647B:A02A idle  _xavar_z
 647B:9FD4       _xbufin
 647B:A022       _xcap
 647B:A182 idle  _xcap_z
 647B:9D14       _xcntin
 647B:9D12       _xcntq
 647B:20AE       _xcorr
 647B:9F7C       _xdir
 647B:9F7E       _xdirs
 647B:9D1C idle  _xendin
 647B:217C       _xinf
 647B:939E idle  _xint1
 647B:98F6       _xk1
 647B:98F8       _xk2
 647B:98FA       _xk3
 647B:98FC       _xk4
 647B:98FE       _xk5
 647B:99CA       _xkadr
 647B:98B6       _xkasan
 647B:5F4E       _xko
 647B:9D16       _xnin
 647B:9D18       _xnout
 647B:A002       _xquit
 647B:9FA8 idle  _xquit_z
 647B:9F9A       _xref
 647B:1FB8       _xreq
 647B:9D1A       _xsumin
 647B:9CBE       _xtakt
 647B:998A       _xtask
 647B:202E       _xtask1
 647B:9A0A       _xtest
 647B:9D10       _xtimein
 647B:5F2E idle  _y1
 647B:5F36 idle  _y2
 647B:A578       _ykz_beg
 647B:97BE       _ykz_byf
 647B:7BC2       _yp
 647B:A262 idle  _yylval
 647B:9FA0       _zdrive
 647B:1FBD       _zero
 647B:A3B4       _ztekos
 647B:0C26       _zvk
 647B:A334       _z_kop
 647B:0B90       _z_ktask
 647B:0B92       _z_ktasks
 647B:0B94       _z_ptask
 647B:7596       _z_stps
 647B:A324       _z_tzbr
 647B:A322       _z_tzbv
 647B:1B1C       __8086
 647B:0C60       __8087
 0000:62C3       __abort
 0000:45E9       __access
 0000:1000 idle  __AHINCR
 0000:000C idle  __AHSHIFT
 647B:1B1E       __atexitcnt
 647B:A682       __atexittbl
 0000:5D88       __brk
 647B:0088       __brklvl
 647B:006A idle  __C0argc
 647B:006C idle  __C0argv
 0000:1F2E idle  __c0crtinit
 647B:0070       __C0environ
 647B:0E7F       __cChar
 0000:62A1 idle  __cexit
 647B:0E7E       __cFlag
 0000:0159       __checknull
 0000:0146       __cleanup
 0000:4669 idle  __close
 0000:15FC       __CPUTN
 0000:1F4F       __crtinit
 647B:1998       __ctype
 0000:A1CA idle  __CurrExcContext
 0000:0000  Abs  __cvtfak
 0000:62B3 idle  __c_exit
 647B:0C56       __default87
 647B:A70E idle  __DestructorCountPtr
 647B:0E74       __directvideo
 0000:6328       __DOSENV
 647B:12DC       __doserrno
 0000:25E4 idle  __DOSERROR
 647B:12DE idle  __dosErrorToSV
 6EED:0020       __emu
 647B:1B4C       __environ
 647B:0074       __envLng
 647B:0076       __envseg
 647B:0078       __envSize
 0000:6F90       __ExceptInit
 0000:9451       __ExceptionHandler
 647B:0080 idle  __Exception_list
 0000:628B       __exit
 647B:1B20       __exitbuf
 647B:1B24       __exitfopen
 647B:1B28       __exitopen
 0000:0FFF idle  __EXPL
 647B:758E idle  __exp_r
 647B:1AB6 idle  __fdivflag
 0000:4821       __fgetc
 0000:8087 idle  __floatconvert
 0000:3352       __flushall
 0000:33AE       __flushout
 647B:12CE       __fmode
 0000:13B0       __fperror
 647B:1AD0       __fpstklen
 0000:048E idle  __fpuint
 0000:3AC2       __fputc
 0000:3C97       __FPUTN
 0000:24CB idle  __freeio
 0000:3642 idle  __GETFP
 0000:60DF       __getswitchar
 0000:86EA idle  __Global_unwind
 647B:0084       __heapbase
 647B:008C       __heaptop
 647B:0C66       __huge_dble
 647B:0C62 idle  __huge_flt
 647B:0C6E idle  __huge_ldble
 647B:0C8E idle  __indefinite
 647B:005A idle  __Int0Vector
 647B:005E idle  __Int4Vector
 647B:0062 idle  __Int5Vector
 647B:0066 idle  __Int6Vector
 0000:25A6       __IOERROR
 647B:0C5A idle  __LDT
 0000:0619       __LDTRUNC
 647B:195C       __localeconvention
 0000:937B idle  __Local_unwind
 0000:4F3F       __LONGTOA
 0000:3956       __makepath
 0000:0E8F       __matherr
 647B:0C9C       __mathwhy
 647B:0C7C idle  __max_dble
 647B:0C78 idle  __max_flt
 647B:0C84 idle  __max_ldble
 0000:23C2       __MKNAME
 0000:026F idle  __MMODEL
 647B:A67A       __new_handler
 0000:483C       __Nfgetc
 647B:1268       __nfile
 0000:2032 idle  __Ngetche
 647B:12D0       __notUmask
 0000:4C8A       __Nungetc
 0000:2064 idle  __Nungetch
 0000:4B81 idle  __open
 647B:126A       __openfd
 0000:356F idle  __OPENFP
 647B:007C idle  __osmajor
 647B:007D idle  __osminor
 647B:007C idle  __osversion
 0000:12E5       __POW10
 647B:0C58       __protected
 647B:007A       __psp
 647B:9FA4       __ptask
 0000:266D       __read
 0000:54C7       __REALCVT
 647B:1D2C       __RealCvtVector
 0000:01BB       __restorezero
 0000:939B idle  __Return_unwind
 0000:08AD       __ROUND
 0000:4626       __rtl_chmod
 0000:4647       __rtl_close
 0000:4B2E       __rtl_open
 0000:263A       __rtl_read
 0000:4D02       __rtl_write
 0000:5DCB       __sbrk
 0000:2689       __scanner
 0000:54D3       __scanpop
 0000:54CF       __scanrslt
 0000:54CB       __scantod
 647B:1D30       __ScanTodVector
 0000:5014       __scantol
 0000:1B17       __SCREENIO
 0000:1BD4       __SCROLL
 0000:1770       __setcursortype
 0000:0000 idle  __setenvp__
 0000:60ED idle  __setswitchar
 0000:2423       __setupio
 647B:9886       __sindex
 0000:6AFF       __spawn
 0000:42A6 idle  __splitpath
 647B:9FA6       __stask
 647B:1B04       __stklen
 0000:209F       __stpcpy
 647B:0E80       __streams
 0000:0555 idle  __strtold
 647B:1420 idle  __sys_errlist
 647B:14E0       __sys_nerr
 0000:015A       __terminate
 647B:0C92 idle  __tiny_ldble
 0000:0000 idle  __turboCrt
 0000:0000  Abs  __turboCvt
 0000:8087  Abs  __turboFloat
 0000:4FC1       __UTOA
 0000:1B55       __VALIDATEXY
 647B:007C       __version
 647B:0E64       __video
 0000:1E9F       __VideoInt
 0000:2BBB       __VPRINTER
 0000:149A       __VPTR
 0000:14BE       __VRAM
 0000:1DBF       __wherexy
 0000:4D42 idle  __write
 647B:0E62       __wscroll
 0000:258C       __xclose
 0000:0C79       __XCVT
 0000:4556       __xfclose
 0000:45A0       __xfflush
 647B:9A4A idle  __xzad
 647B:0082 idle  ___brklvl
 0000:6DC2       ___call_terminate
 0000:6E95       ___call_unexpected
 647B:1B8C idle  ___CPPexceptionList
 0000:60B5       ___ErrorMessage
 647B:1B90 idle  ___exceptFlags
 647B:1BB4 idle  ___exceptionNameBuff
 647B:1BB0 idle  ___exceptMemAllocVars
 647B:1BAC idle  ___exceptStaticBuffP
 647B:1C34 idle  ___ExceptStaticXbuff
 0000:7694       ___ExitExceptBlocks
 0000:5867 idle  ___first
 0000:408E       ___fnsplit
 0000:03BB idle  ___fpreset
 0000:75BC       ___InitExceptBlock
 0000:7625       ___InitExceptBlocks
 0000:76A8 idle  ___JumpToCatch__
 0000:5869 idle  ___last
 0000:0ECA       ___matherr
 0000:4B9A       ___read
 0000:586B idle  ___rover
 647B:1B92 idle  ___savedDS
 647B:1B94 idle  ___savedSI
 647B:A702       ___SignalPtr
 647B:A672 idle  ___stderr_streambuf
 647B:A66A idle  ___stdin_streambuf
 647B:A66E idle  ___stdout_streambuf
 647B:1B96 idle  ___terminatePTR
 647B:1B9E idle  ___terminate_DS
 647B:1BA8 idle  ___throwExceptionName
 647B:1BA2 idle  ___throwFileName
 647B:1BA6 idle  ___throwLineNumber
 647B:1B9A idle  ___unexpectdPTR
 647B:1BA0 idle  ___unexpectd_DS
 0000:43EC       ___write
 647B:1B06       ___xalloc

  Address         Publics by Value

 0000:0000  Abs  FISRQQ
 0000:0000  Abs  FJSRQQ
 0000:0000  Abs  FIWRQQ
 0000:0000 idle  FJARQQ
 0000:0000 idle  FJCRQQ
 0000:0000  Abs  FIERQQ
 0000:0000  Abs  __cvtfak
 0000:0000  Abs  FIDRQQ
 0000:0000  Abs  __turboCvt
 0000:0000 idle  FICRQQ
 0000:0000 idle  __turboCrt
 0000:0000 idle  __setenvp__
 0000:0000 idle  FIARQQ
 0000:000C idle  __AHSHIFT
 0000:1000 idle  __AHINCR
 0000:8087  Abs  __turboFloat
 0000:8087 idle  __floatconvert
 0000:0146       __cleanup
 0000:0159       __checknull
 0000:015A       __terminate
 0000:01BB       __restorezero
 0000:026D idle  DGROUP@
 0000:026F idle  __MMODEL
 0000:03BB idle  ___fpreset
 0000:048E idle  __fpuint
 0000:0492       _atof
 0000:04AB idle  _ecvt
 0000:04E6       _fcvt
 0000:0555 idle  __strtold
 0000:05C3       _strtod
 0000:05F9       _atan
 0000:0608       _fabs
 0000:0619       __LDTRUNC
 0000:08AD       __ROUND
 0000:0C79       __XCVT
 0000:0E8F       __matherr
 0000:0EBD       _pow10
 0000:0ECA       ___matherr
 0000:0F7A       _cos
 0000:0FCC       _modf
 0000:0FFF idle  __EXPL
 0000:106E       _pow
 0000:11FA       _sin
 0000:124C       _sqrt
 0000:1290       _tan
 0000:12E5       __POW10
 0000:13B0       __fperror
 0000:145A       F_FTOL@
 0000:145A idle  FTOL@
 0000:1486       _bioscom
 0000:149A       __VPTR
 0000:14BE       __VRAM
 0000:1538       _clreol
 0000:156B       _clrscr
 0000:1598       _textcolor
 0000:15B1       _textbackground
 0000:15CE idle  _textattr
 0000:15DD idle  _highvideo
 0000:15E7 idle  _lowvideo
 0000:15F1 idle  _normvideo
 0000:15FC       __CPUTN
 0000:172E       _cprintf
 0000:174C       _cputs
 0000:1770       __setcursortype
 0000:17FD       _gotoxy
 0000:184A       _gettext
 0000:18AE       _puttext
 0000:1912       _movetext
 0000:19BA       _putch
 0000:1B17       __SCREENIO
 0000:1B55       __VALIDATEXY
 0000:1BD4       __SCROLL
 0000:1D41       _textmode
 0000:1D64       _gettextinfo
 0000:1DBF       __wherexy
 0000:1DCD       _wherex
 0000:1DE0       _wherey
 0000:1DF7       _window
 0000:1E9F       __VideoInt
 0000:1F2E idle  __c0crtinit
 0000:1F4F       __crtinit
 0000:2015       _getch
 0000:2032 idle  __Ngetche
 0000:2035 idle  _getche
 0000:2064 idle  __Nungetch
 0000:2067 idle  _ungetch
 0000:2089       _kbhit
 0000:209F       __stpcpy
 0000:20DC       _strpbrk
 0000:212C       _memcmp
 0000:2154       _memcpy
 0000:2178       _setmem
 0000:219E       _memset
 0000:21C1 idle  _movmem
 0000:2213       _memmove
 0000:2238       _strcat
 0000:2277       _strcmp
 0000:22A7       _strcpy
 0000:22D0       _strlen
 0000:22F1       _strncpy
 0000:2322       _strrev
 0000:2356       _strstr
 0000:23C2       __MKNAME
 0000:2423       __setupio
 0000:24CB idle  __freeio
 0000:258C       __xclose
 0000:25A6       __IOERROR
 0000:25E4 idle  __DOSERROR
 0000:25F8       _isatty
 0000:260D       _lseek
 0000:263A       __rtl_read
 0000:266D       __read
 0000:2689       __scanner
 0000:2B87       _unlink
 0000:2BBB       __VPRINTER
 0000:307E       _read
 0000:3081       _write
 0000:3084       _access
 0000:309E       _chmod
 0000:30EC       _close
 0000:3118       _fclose
 0000:31D9       _fflush
 0000:32B4       _fgets
 0000:3352       __flushall
 0000:33A5 idle  _flushall
 0000:33AE       __flushout
 0000:3437       _fnmerge
 0000:3466       _fnsplit
 0000:356F idle  __OPENFP
 0000:3642 idle  __GETFP
 0000:368F       _fopen
 0000:36C8       _fprintf
 0000:36E8       _fputs
 0000:373D       _fscanf
 0000:37EF       _fseek
 0000:3874       _ftell
 0000:3956       __makepath
 0000:3A2B idle  _perror
 0000:3AC2       __fputc
 0000:3AE4       _fputc
 0000:3C7F idle  _fputchar
 0000:3C97       __FPUTN
 0000:3EA9       _setvbuf
 0000:408E       ___fnsplit
 0000:42A6 idle  __splitpath
 0000:4319       _sprintf
 0000:433F       _vsprintf
 0000:439D       _sscanf
 0000:43C4 idle  _vsscanf
 0000:43EC       ___write
 0000:4556       __xfclose
 0000:45A0       __xfflush
 0000:45E9       __access
 0000:4626       __rtl_chmod
 0000:4647       __rtl_close
 0000:4669 idle  __close
 0000:467A       _eof
 0000:46F8       _findfirst
 0000:472F       _findnext
 0000:4821       __fgetc
 0000:483C       __Nfgetc
 0000:483F       _fgetc
 0000:4941 idle  _fgetchar
 0000:4986       _open
 0000:4B2E       __rtl_open
 0000:4B81 idle  __open
 0000:4B9A       ___read
 0000:4C6B       _rename
 0000:4C8A       __Nungetc
 0000:4C8D idle  _ungetc
 0000:4D02       __rtl_write
 0000:4D42 idle  __write
 0000:4D5E       _ioctl
 0000:4D8B idle  _localeconv
 0000:4D95       _tolower
 0000:4DC5       _toupper
 0000:4DF5 idle  LXMUL@
 0000:4DF5       F_LXMUL@
 0000:4E0C idle  N_LDIV@
 0000:4E0F idle  LDIV@
 0000:4E0F idle  F_LDIV@
 0000:4E13       N_LUDIV@
 0000:4E16       F_LUDIV@
 0000:4E16 idle  LUDIV@
 0000:4E1B idle  N_LMOD@
 0000:4E1E idle  LMOD@
 0000:4E1E idle  F_LMOD@
 0000:4E23 idle  N_LUMOD@
 0000:4E26       F_LUMOD@
 0000:4E26 idle  LUMOD@
 0000:4EBA       N_LXLSH@
 0000:4EBD       F_LXLSH@
 0000:4EBD idle  LXLSH@
 0000:4EDB idle  N_LXURSH@
 0000:4EDE idle  LXURSH@
 0000:4EDE       F_LXURSH@
 0000:4EFC       N_LXMUL@
 0000:4F13       _labs
 0000:4F3F       __LONGTOA
 0000:4FC1       __UTOA
 0000:5014       __scantol
 0000:5316 idle  N_FDIV@
 0000:5339       F_FDIV@
 0000:535C idle  N_FDIVR@
 0000:537F       F_FDIVR@
 0000:53A2       _itoa
 0000:53D1 idle  _ultoa
 0000:53F2       _ltoa
 0000:541E       _atol
 0000:5493 idle  _atoi
 0000:54C7       __REALCVT
 0000:54CB       __scantod
 0000:54CF       __scanrslt
 0000:54D3       __scanpop
 0000:5767       @$bdele$qnv
 0000:577D       @$bdla$qnv
 0000:5793       @set_new_handler$qnqv$v
 0000:5800       @$bnew$qui
 0000:5855       @$bnwa$qui
 0000:5867 idle  ___first
 0000:5869 idle  ___last
 0000:586B idle  ___rover
 0000:59A7       _free
 0000:59A7       _farfree
 0000:5AB1       _malloc
 0000:5ABB       _farmalloc
 0000:5C18       _realloc
 0000:5C1F idle  _farrealloc
 0000:5C99       _calloc
 0000:5D88       __brk
 0000:5DCB       __sbrk
 0000:5E5A       _farcoreleft
 0000:5EAA       _coreleft
 0000:5EB4       _farcalloc
 0000:5F48       _setblock
 0000:5F68       N_PADA@
 0000:5F6B idle  PADA@
 0000:5F6B idle  F_PADA@
 0000:5FAC idle  N_PSBA@
 0000:5FAF idle  F_PSBA@
 0000:5FAF idle  PSBA@
 0000:5FF0       N_PADD@
 0000:5FF3 idle  PADD@
 0000:5FF3 idle  F_PADD@
 0000:601F idle  N_PSUB@
 0000:6022 idle  F_PSUB@
 0000:6022 idle  PSUB@
 0000:6050       N_PSBP@
 0000:6053 idle  F_PSBP@
 0000:6053 idle  PSBP@
 0000:6078       N_PCMP@
 0000:6099       N_SCOPY@
 0000:60B5       ___ErrorMessage
 0000:60DF       __getswitchar
 0000:60ED idle  __setswitchar
 0000:60FE       _inport
 0000:610B       _inportb
 0000:611A idle  _inpw
 0000:6127 idle  _inp
 0000:6136       _outport
 0000:6146       _outportb
 0000:6156 idle  _outpw
 0000:6166 idle  _outp
 0000:61D4       _abort
 0000:61E8 idle  _atexit
 0000:6278       _exit
 0000:628B       __exit
 0000:62A1 idle  __cexit
 0000:62B3 idle  __c_exit
 0000:62C3       __abort
 0000:62DE       _getvect
 0000:62F1       _setvect
 0000:6306       _segread
 0000:6328       __DOSENV
 0000:6495       _getenv
 0000:67D5 idle  _signal
 0000:6903       _raise
 0000:699A       _int86
 0000:69CF idle  _int86x
 0000:6A69       _intdos
 0000:6A9B idle  _intdosx
 0000:6AFF       __spawn
 0000:6BC1       _system
 0000:6D43 idle  @terminate$qv
 0000:6D4D idle  @set_terminate$qnqv$v
 0000:6DC2       ___call_terminate
 0000:6E41 idle  @unexpected$qv
 0000:6E4A idle  @set_unexpected$qnqv$v
 0000:6E95       ___call_unexpected
 0000:6EE4       @__GetPolymorphicDTC$qnvui
 0000:6F38 idle  @__GetPolymorphicDTCfar$qnvui
 0000:6F90       __ExceptInit
 0000:6FDE       @xalloc@$bctr$qmx6stringui
 0000:705D       @xalloc@raise$qv
 0000:7209       @xmsg@$bctr$qmx6string
 0000:72D4       @xmsg@$bctr$qmx4xmsg
 0000:737F       @xmsg@$bdtr$qv
 0000:7402 idle  @xmsg@raise$qv
 0000:747E idle  @xmsg@$basg$qmx4xmsg
 0000:75BC       ___InitExceptBlock
 0000:7619       @__RefDestructorCount$qv
 0000:761F idle  @__RefExceptionList$qv
 0000:7625       ___InitExceptBlocks
 0000:7694       ___ExitExceptBlocks
 0000:76A8 idle  ___JumpToCatch__
 0000:8555       @_ThrowException$qnvt1t1t1uiuiuinuc
 0000:85AE idle  @_ReThrowException$quinuc
 0000:86EA idle  __Global_unwind
 0000:8736 idle  _RaiseException
 0000:8D1D       @_CatchCleanup$qv
 0000:937B idle  __Local_unwind
 0000:939B idle  __Return_unwind
 0000:9451       __ExceptionHandler
 0000:A1CA idle  __CurrExcContext
 0000:A21F idle  @__ThrowFileName$qv
 0000:A231 idle  @__ThrowLineNumber$qv
 0000:A23F idle  @__ThrowExceptionName$qv
 0000:A251 idle  @typeinfo@0$bctr$qmx8typeinfo
 0000:A2BF idle  @typeinfo@0$basg$qmx8typeinfo
 0000:A2CE idle  @typeinfo@0$bdtr$qv
 0000:A303 idle  @typeinfo@0$beql$xqmx8typeinfo
 0000:A334 idle  @typeinfo@0$bneq$xqmx8typeinfo
 0000:A356 idle  @typeinfo@0before$xqmx8typeinfo
 0000:A3CD idle  @typeinfo@0name$xqv
 0000:A3E7 idle  @__GetTypeInfo$qnvt1t1t1
 0000:A6B4 idle  @__DynamicCast$qnvt1t1t1i
 0AC2:0000       @cnciposs$qi
 0AC2:033C       @cncispds$qi
 0AC2:099A       @cncirst$qi
 0B71:00B5 idle  @LoadQParameter$qv
 0B71:01B5       @$xt$8ifstream
 0B71:0209       @$xt$11fstreambase
 0B71:0255       @$xt$7istream
 0B71:0297       @$xt$3ios
 0B71:02CD       @$xt$7filebuf
 0B71:030F       @$xt$9streambuf
 0BA5:0137       @Otl$qcnui
 0C01:003E       @Ted$q7TEDMODEulc
 0CA7:0004       @cncuzsm$qv
 0CA7:01DF       @cncufiks$qv
 0CA7:03D2       @cncugekv$qv
 0D12:000D       @cncuzero$qv
 0D31:000C       @cncuzcp$qv
 0DC1:006B       @cncuwkp$qi
 0DC1:0667       @cncuwnam$qv
 0E53:001B       @cncuwerr$qv
 0E6D:0005       @cncukom$qv
 0E6D:00B8       @cncusim$qv
 0E9D:0106       @cncur_pr$qnc
 0E9D:1C1A idle  @cncufscn$qiincndnit3t4t5
 0E9D:1D41 idle  @cncurtpa$qd
 0E9D:1E09 idle  @cncuwtpa$qdd
 1089:0003       @cncunums$qv
 116B:0007       @cncufns$qv
 116B:04D7       @cncunuma$qv
 116B:10DE idle  @cncunumf$qidd
 116B:1183 idle  @cncuera$qii
 116B:11C4 idle  @cncurtp$qd
 1290:0001       @xparabola$qv
 1290:0006       @xellips$qv
 1290:000B       @xhyperbola$qv
 1290:0010       @xsin$qv
 1291:0021       @cncunp3$qv
 14F6:0099       @cncunp2$qv
 14F6:0CCB idle  @cncufgo$qnc
 15DD:01AD idle  @cncunp1$qv
 16C5:000A       @cncuintf$qv
 1701:0001       @cncugran$qid
 1793:000B       @cncugr4$qv
 17E8:0004       @cncuform$qv
 17E8:0F25 idle  @cncuformb$qii
 1ADF:0000       @cncufom$qncdd
 1C1C:0000       @cncufnum$qv
 1C55:0016       @cncufnm$qv
 1C5E:00D9       @cncuends$qv
 1C5E:117B       @cncurbuf$qv
 1C5E:1333       @erpac$qii
 1C5E:1385       @cncufpnn$qiincdit3di
 1C5E:146F idle  @cncurdfpp$qv
 1DB3:0004       @cncuasim$qv
 1DB3:0289 idle  @cncuctg$qd
 1DE2:0086       @cncuana$qv
 1DE2:0D8E idle  @cncufpp$qddnd
 1EC4:0007       @cnctszr$qv
 1F36:0003       @cnctstp$qv
 1F36:03FC       @cnctcmm$qv
 1FA2:000A       @cnctsm$qv
 1FBB:0005       @outqup$qv
 1FC0:0000       @cnctres$qv
 1FEF:000D       @cnctrc2$qv
 1FF4:0001       @cnctrc1$qv
 1FF9:0001 idle  @cnctpoin$qv
 200A:0009       @cnctmm$qv
 2037:000B       @cnctmfun$qv
 20C9:000E       @cnctio$qv
 20D4:0004       @cnctinfm$qv
 2166:000A       @cnctcom1$qv
 218A:0006       @cnctcm$qv
 21C7:000D       @cnctbgn$qv
 21C7:03F6 idle  @cnctbgmn$qv
 2218:0009 idle  @zapic$qv
 2249:0013       @ob_out$qv
 227D:0041       @ob_kon2$qc
 22F2:004A       @ob_kon$qc
 22F2:0C9D       @EraseTabl$qv
 23C3:000B       @ob_in$qv
 23F7:00A7       @Mistake$qv
 23F7:11C0 idle  @wr_kod$qi
 2517:0033       @StatWindow$qv
 2676:0054       @diag$qv
 2676:0BCD idle  @trans_tool$qiiinc
 2676:0C9C idle  @cur_window$qiiui
 274F:0035       @avtoyp$qv
 297E:0007       @cncisref$qi
 2A84:0002 idle  @cnciseok$qi
 2A84:04C1       @cncispoz$qi
 2A84:0936 idle  @cncisspd$qi
 2B55:000F       @cncires$qv
 2B7D:000C       @cncieoks$qi
 2C85:0007       @cncicrfn$qv
 2C85:09AD       @xlincyl$qv
 2C85:0C79       @xkonuss$qv
 2C85:107E       @xkrugcyl$qv
 2C85:1345       @xvint$qv
 2C85:1671       @xg33$qv
 2C85:1910       @xg99$qv
 2E55:0000       @cncciuna$qv
 2E8E:000F       @cnccisvl$qv
 2E8E:14EB idle  @cnccidfi$qv
 2FDF:0006       @cnccism0$qv
 2FDF:0190 idle  @cnccimvp$qii
 2FDF:032C idle  @cncciclr$qnd
 3014:0000       @cnccirnd$qv
 30C4:000C       @cnccirnc$qv
 30C4:0159 idle  @cnccireq$qv
 30C4:0EAB       @cnccialfa$qdd
 30C4:0F36       @cncciffi$qi
 30C4:11C2 idle  @cnccilr$qii
 30C4:1D6D idle  @cncciflr$qiidd
 30C4:1E64 idle  @cnccifdp$qii
 32E9:000F       @cnccirds$qv
 3309:000B       @cnccipol$qv
 3359:0005 idle  @cnccimrr1$qv
 3359:0452 idle  @cnccimrr2$qv
 3359:0EA5       @cnccidan$qdddd
 347A:0000       @cnccill$qdddddd
 347A:0B3A idle  @cnccifdc$qdddddd
 347A:2198 idle  @cnccifll$qdd
 347A:2285       @cnccifcc$qdd
 347A:2640       @cnccifcl$qv
 3715:0007       @cnccikrg$qv
 3715:17E3 idle  @cnccivnt$qv
 3899:0006       @cnccikcn$qv
 391E:000C       @cncciinp$qv
 391E:0537       @cncciout$qv
 391E:0AE5 idle  @cncciiol$qii
 391E:0F80 idle  @cncciplc$qiidddd
 391E:1B39       @cnccilnc$qdddddddndt8t8t8
 3B0A:000B       @cnccilnr$qv
 3B0A:059A idle  @cnccieqv$qd
 3B0A:0794 idle  @cncciabc$qv
 3B0A:0E66       @error$qi
 3B0A:0EC8 idle  @cnccilmn$qdi
 3B0A:0F92       @cncciekl$qi
 3C3C:000B       @cnccict$qv
 3C3C:024D       @cnccirrr$qdd
 3C71:0008       @cnccicrs$qddddddndt7
 3C71:0205       @cnccilc$qdddddddndt8t8t8
 3C71:06DC       @cncciicr$qii
 3C71:1872       @cnccicrc$qddddddndt7t7t7
 3E67:0009       @cncctok$qv
 3EAB:0009       @cnccstr$qv
 3EAB:0287 idle  @cnccvost$qv
 3EDA:000F       @cncrrdp$qv
 3F31:0000       @cnccrm$qv
 3F74:0003       @cnccref$qv
 3FB0:0007       @cnccoutk$qv
 400C:000A       @cnccman$qv
 400C:0E4A idle  @cnccfbt$qi
 4109:000B       @cnccfrs$qi
 413A:001D       @cnccauto$qv
 423B:000E       @cncxupr$qv
 42D2:0001       @cnctend$qv
 42D2:01C5 idle  @cnctnext$qv
 4361:0003       @cnctcom2$qv
 4361:046F idle  @cnctcbf$qv
 4361:050F idle  @cnctcbff$qv
 4361:062C       @cnctinit$qv
 43F5:000D       @cncsupr$qv
 449C:000C       @cncmup$qv
 44C4:000B       @cnciref$qi
 44C4:090C       @cncisrf$qi
 4568:0000       @cncipos$qi
 46AF:000A       @cncilin$qv
 46AF:04B3       @cncispd$qv
 4740:000A       @cncieok$qv
 483C:0005       @cnciax$qv
 483C:1B6F idle  @cnciast$qii
 4A1E:0008       @taim$qqive
 4A1E:06BE idle  @cnctirps$qv
 4A9D:0001 idle  @cmdrc$qv
 4B14:0018       _main
 4B14:0A72 idle  @cnccmemv$qv
 4BEF:000C       @TedMain$qcnuincn6TABARR
 4C01:000D       @LoadTehParam$qv
 4C01:00E2       @CompTehParam$qv
 4C01:01AF       @LoadTabKorr$qv
 4C01:02D3       @CompTabKorr$qv
 4C01:03E8       @LoadTabNull$qv
 4C01:0551       @CompTabNull$qv
 4C64:000B       @TedChange$q13TEDCHANGEMODEc
 4C64:12C6 idle  @CalcNewPosition$q9DIRECTIONnit2
 4C64:26A7       @CalcRightMargin$qi
 4ED1:000B       @ReadMsg$qnnncxnc
 4ED1:0280       @FreeMesage$qnnnc
 4EFD:0000       @Cnc_manual$qc
 4EFD:0120 idle  @Mn0$qnui
 4EFD:01E0 idle  @Mn1$qcnui
 4EFD:0252 idle  @Mn3$qcnui
 4EFD:0347 idle  @Mn31$qnui
 4EFD:0380 idle  @Mn32$qnui
 4EFD:03AF idle  @Mn33$qnui
 4EFD:03E7 idle  @Mn34$qnui
 4EFD:0425 idle  @Mn35$qnui
 4F43:0003       @Cnc_edkorr$qc
 4F43:08CD idle  @Ek0$qcnui
 4F43:0907 idle  @Ek1$qcnui
 4F43:097F idle  @Ek11$qcnui
 4F43:09B3 idle  @Ek12$qcnui
 4F43:09E7 idle  @Ek13$qcnui
 4F43:0A22 idle  @Ek14$qcnui
 4F43:0A96 idle  @Ek15$qcnui
 4F43:0AE1 idle  @Ek151$qcnui
 4F43:0B15 idle  @Ek152$qcnui
 4F43:0B49 idle  @Ek153$qcnui
 4F43:0B7D idle  @Ek154$qcnui
 4F43:0B9F idle  @Ek155$qcnui
 4F43:0BC2 idle  @Ek1551$qcnui
 4F43:0BEC idle  @Ek1553$qcnui
 4F43:0C96 idle  @Ek1554$qcnui
 4F43:0CC0 idle  @Ek1555$qcnui
 4F43:0CEF idle  @Ek2$qcnui
 4F43:0D67 idle  @Ek21$qcnui
 4F43:0D9B idle  @Ek22$qcnui
 4F43:0DCF idle  @Ek23$qcnui
 4F43:0E0A idle  @Ek24$qcnui
 4F43:0E7E idle  @Ek25$qcnui
 4F43:0EC9 idle  @Ek251$qcnui
 4F43:0EFD idle  @Ek252$qcnui
 4F43:0F31 idle  @Ek253$qcnui
 4F43:0F65 idle  @Ek254$qcnui
 4F43:0F87 idle  @Ek255$qcnui
 4F43:0FAA idle  @Ek2551$qcnui
 4F43:0FD4 idle  @Ek2553$qcnui
 4F43:107E idle  @Ek2554$qcnui
 4F43:10A8 idle  @Ek2555$qcnui
 4F43:10D7 idle  @Ek3$qcnui
 4F43:114F idle  @Ek31$qcnui
 4F43:1183 idle  @Ek32$qcnui
 4F43:11B7 idle  @Ek33$qcnui
 4F43:11F2 idle  @Ek34$qcnui
 4F43:1266 idle  @Ek35$qcnui
 4F43:12B1 idle  @Ek351$qcnui
 4F43:12E5 idle  @Ek352$qcnui
 4F43:1319 idle  @Ek353$qcnui
 4F43:134D idle  @Ek354$qcnui
 4F43:136F idle  @Ek355$qcnui
 4F43:1392 idle  @Ek3551$qcnui
 4F43:13BC idle  @Ek3553$qcnui
 4F43:1466 idle  @Ek3554$qcnui
 4F43:1490 idle  @Ek3555$qcnui
 4F43:14BF idle  @Ek4$qcnui
 4F43:1537 idle  @Ek41$qcnui
 4F43:156B idle  @Ek42$qcnui
 4F43:159F idle  @Ek43$qcnui
 4F43:15DA idle  @Ek44$qcnui
 4F43:164E idle  @Ek45$qcnui
 4F43:1699 idle  @Ek451$qcnui
 4F43:16CD idle  @Ek452$qcnui
 4F43:1701 idle  @Ek453$qcnui
 4F43:1735 idle  @Ek454$qcnui
 4F43:1757 idle  @Ek455$qcnui
 4F43:177A idle  @Ek4551$qcnui
 4F43:17A4 idle  @Ek4553$qcnui
 4F43:184E idle  @Ek4554$qcnui
 4F43:1878 idle  @Ek4555$qcnui
 4F43:18A7 idle  @Ek5$qcnui
 4F43:191F idle  @Ek51$qcnui
 4F43:1953 idle  @Ek52$qcnui
 4F43:1987 idle  @Ek53$qcnui
 4F43:19C2 idle  @Ek54$qcnui
 4F43:1A36 idle  @Ek55$qcnui
 4F43:1A81 idle  @Ek551$qcnui
 4F43:1AB5 idle  @Ek552$qcnui
 4F43:1AE9 idle  @Ek553$qcnui
 4F43:1B1D idle  @Ek554$qcnui
 4F43:1B3F idle  @Ek555$qcnui
 4F43:1B62 idle  @Ek5551$qcnui
 4F43:1B8C idle  @Ek5553$qcnui
 4F43:1C36 idle  @Ek5554$qcnui
 4F43:1C60 idle  @Ek5555$qcnui
 510B:000A       @Jog$qc
 5123:0023 idle  @Setting$quc
 5123:00F4 idle  @Swicher$qc
 5123:01F0       @Cnc_show$qv
 5123:02CB       @Swichcod$qcnui
 515D:0050       @GetsScr$qcnct2uinqnct1ui$v
 515D:0344       @SetCursPosition$qnc
 515D:0363       @PrntEds$qnct1ui
 515D:0414       @ReqSaveProgName$qnc
 515D:044E       @ReqSaveSubrName$qnc
 515D:048B       @ReqSaveQuanSkip$qnc
 515D:04C0       @ReqSaveProgStr$qnc
 515D:04FB       @ReqGet$qnc
 515D:06E2 idle  @ReqClear$qv
 515D:06F5       @ReqNameNotSaved$qv
 515D:0708       @GetComLine$qnc
 515D:0750       @SaveComLine$qnc
 51D8:0004       @Getscancod$qqive
 51D8:04DB idle  @GetSimb$qv
 51D8:05B7       @Inkey$qv
 523A:0007       @Geometr$qiinlxnc10SwitchFont15SwitchArrayType
 523A:0511       @PutBig$qucucc
 523A:057E       @PrintShp$qiii
 523A:05F5       @AxIndicated$qi
 52AA:000B       @GetDNCcod$qv
 52AB:0022       @BackTree$qcucnui
 52AB:008D       @Boot$qv
 52AB:00A4       @IbmError$qqive
 52AB:0165       @SetError$qucucucuc7StatFid
 52AB:01C9 idle  @NullFun$qqive
 52AB:0206 idle  @Password$qv
 52AB:020E       @Timer$qui
 52AB:0243       @PrintFreeMem$qv
 52AB:0274       @ResetMenu$qcc
 52AB:0298       @ResetWind$qcc
 52D6:000C       @F_S_Print$qii
 52D6:00B5 idle  @SwitchFeed$qii
 52D6:04C3       @Scale$qxncuiui
 52D6:059B       @AxStatus$qv
 52D6:06A8 idle  @AxChoose$qv
 52D6:08B7 idle  @RevolShpind$qv
 538D:000B       @FileHanding$q16FILE_HAND_METHODul
 538D:0208 idle  @ReqAccess$qn6DEVICE
 538D:02D2 idle  @CopFile$qnc
 538D:0672 idle  @DelFile$qv
 538D:06F1 idle  @DelAll$qv
 538D:078E idle  @RenFile$qnc
 538D:0861 idle  @ProFile$qv
 538D:08DC idle  @CursMove$qncc
 538D:09AB idle  @NewCatalog$qv
 538D:0AEF idle  @ShowCatalog$qnc
 538D:0EC1 idle  @WriteDir$qn5ffblkn4FILE
 538D:0F7A idle  @IstSwitch$qc
 538D:0FA4       @DestSwitch$qc
 538D:0FCE idle  @SwapDev$qv
 538D:1067 idle  @FlopOff$qv
 538D:1078       @FhRoot$qcnct2
 538D:121A       @FhCopFile$qcnuinc
 538D:1526       @FhSwapDir$qcnuinc
 538D:1639       @FhSwIst$qcnuinc
 538D:1750       @FhUnlink$qcnuinc
 538D:195A       @FhAllUnlink$qcnuinc
 538D:1B33       @FhRename$qcnuinc
 538D:1E12       @FhProtect$qcnuinc
 538D:1FEA       @GetDirFileName$qnc
 5593:000E       @Cnc_editpr$qc
 5593:0281 idle  @Ep0$qcnui
 5593:02B9 idle  @Ep1$qcnui
 5593:02EC idle  @Ep2$qcnui
 5593:031F idle  @Ep3$qcnui
 5593:035A idle  @Ep4$qcnui
 5593:03CD idle  @Ep5$qcnui
 5593:0417 idle  @Ep51$qcnui
 5593:044A idle  @Ep52$qcnui
 5593:047D idle  @Ep53$qcnui
 5593:04B0 idle  @Ep54$qcnui
 5593:04CD idle  @Ep55$qcnui
 5593:04F4 idle  @Ep551$qcnui
 5593:051B idle  @Ep553$qcnui
 5593:0542 idle  @Ep5531$qcnui
 5593:0569 idle  @Ep5532$qcnui
 5593:0590 idle  @Ep5533$qcnui
 5593:05B7 idle  @Ep5534$qcnui
 5593:05DE idle  @Ep554$qcnui
 5593:0605 idle  @Ep5545$qcnui
 55F5:000C       @Cnc_diag$qc
 55F5:0203 idle  @Dg0$qcnui
 55F5:0322 idle  @Dg1$qcnui
 55F5:0401 idle  @Dg13$qcnui
 55F5:04B0 idle  @Dg15$qv
 55F5:04DA idle  @Dg2$qcnui
 55F5:0550 idle  @Dg21$qcnui
 55F5:0577 idle  @Dg23$qcnui
 55F5:05F2 idle  @Dg232$qcnui
 55F5:068F idle  @Dg2322$qcnui
 55F5:073C idle  @Dg233$qcnui
 55F5:07AD idle  @Dg2332$qcnui
 55F5:082E idle  @Dg25$qcnui
 55F5:08A9 idle  @Dg253$qcnui
 55F5:091F idle  @Dg2532$qcnui
 55F5:09A5 idle  @Dg3$qcnui
 55F5:0AC2 idle  @Dg35$qv
 56A4:000B idle  @FileName$qucnui
 56A4:0172       @TextWind$qucxnc6Invers
 56A4:020B       @CtrlWindows$qnui
 56A4:02BF idle  @Windows$q6Invers
 56D8:0121       @PrintErr$qxnce
 56D8:018D idle  @InitScr$quc
 56D8:01DD       @MainBord$quc
 56D8:0322       @Line$qucucucuc
 56D8:03A5       @RolWind$qiiii8ScrolDir
 56D8:03FA       @ClrWind$qucucucuc
 56D8:043C       @Window$qucucucuc
 56D8:0519       @EraseErr$qv
 56D8:057B       @PrintNode$qnc
 56D8:067C       @EraseWarning$qv
 56D8:06BB       @EraseWind$qv
 56D8:06EB       @DrawWarning$qnc
 574B:0019       @CompQparam$qv
 574B:021C idle  @FindNextData$qv
 574B:0330 idle  @CompilError$qie
 574B:0383 idle  @FindParam$qi
 5791:0062       @Beginer$qv
 5791:03B8       @Shell$qv
 57D9:0009       @Cnc_auto$qc
 57D9:0156 idle  @At0$qnui
 57D9:0359 idle  @At1$qcnui
 57D9:0380 idle  @At2$qcnui
 57D9:0489 idle  @At3$qcnui
 57D9:0680 idle  @At31$qcnui
 57D9:08A6 idle  @At32$qcnui
 57D9:0A0F idle  @At34$qcnui
 57D9:0B74 idle  @At35$qcnui
 57D9:0D03 idle  @At354$qnui
 57D9:0D41 idle  @At355$qnui
 58B0:0028 idle  @AxisData@$bctr$qv
 58B0:005F idle  @AxisData@clear$qv
 58B0:0073 idle  @QParameter@calcQ100$qv
 58B0:022B idle  @QParameter@calcQ1000$qv
 58B0:0230 idle  @QParameter@calcQ4000$qv
 58B0:02C8 idle  @QParameter@calcQ6000$qv
 58B0:02CD idle  @QParameter@calcConst$qv
 58B0:030A idle  @ParAxis@nameOf$xqv
 58B0:0314 idle  @ParAxis@printOn$xqm7ostream
 58B0:0348 idle  @ParAxis@isA$xqv
 58B0:0350 idle  @ParAxis@hashValue$xqv
 58B0:0357 idle  @ParAxis@isEqual$xqmx6Object
 58B0:038F idle  @ParData@$bctr$qv
 58B0:03C6 idle  @ParData@clear$qv
 58B0:0406 idle  @QParameter@$bctr$qv
 58B0:046D idle  @QParameter@$bctr$qnxc
 58B0:051A idle  @QParameter@load$qnxc
 58B0:0618 idle  @QParameter@clear$qv
 58B0:0648 idle  @QParameter@nameOf$xqv
 58B0:0652 idle  @QParameter@printOn$xqm7ostream
 58B0:0686 idle  @QParameter@isA$xqv
 58B0:068E idle  @QParameter@hashValue$xqv
 58B0:0695 idle  @QParameter@isEqual$xqmx6Object
 58B0:06CD idle  @$blsh$qm7ostreamm10QParameter
 58B0:076A       @$brsh$qm7istreamm10QParameter
 58B0:0812 idle  @ComPortsData@$bctr$qv
 58B0:0854 idle  @ComPortsData@$basg$qm6Serial
 58B0:08AF idle  @ComPortsData@putNumPort$q7eNumCom
 58B0:08F5 idle  @ComPortsData@putBoud$qul
 58B0:09F3 idle  @ComPortsData@putParity$q7eParity
 58B0:0A52 idle  @ComPortsData@putStopBit$q8eStopBit
 58B0:0A6F idle  @ComPortsData@putBits$q5eBits
 58B0:0AB9 idle  @Serial@$basg$qm12ComPortsData
 58B0:0B14 idle  @Serial@$basg$qm6Serial
 58B0:0B71       @$xt$10QParameter
 58B0:0BAF       @$xt$8AxisData
 58B0:0BDB       @$xt$7ParData
 597B:003F       e087_Trap
 597B:04E0       e087_Entry
 597B:05A3       e087_Shortcut
 59D7:046B idle  @Iostream_delete$qv
 59D7:08C0       @filebuf@close$qv
 59D7:096E       @filebuf@$bctr$qv
 59D7:0ADB       @filebuf@$bctr$qi
 59D7:0C49       @filebuf@$bdtr$qv
 59D7:0D41       @filebuf@overflow$qi
 59D7:0E91       @filebuf@open$qnxcii
 59D7:0FF8       @filebuf@setbuf$qnci
 59D7:10BD       @filebuf@seekoff$ql12ios@seek_diri
 59D7:1273       @filebuf@sync$qv
 59D7:143D       @filebuf@underflow$qv
 59D7:15F8       @fstreambase@$bctr$qnxcii
 59D7:17B9       @fstreambase@$bdtr$qv
 59D7:193F       @fstreambase@open$qnxcii
 59D7:19A9       @ifstream@$bctr$qnxcii
 59D7:1C10       @ifstream@$bdtr$qv
 59D7:1E4E       @istream_withassign@$basg$qn9streambuf
 59D7:1E72       @istream@$bctr$qv
 59D7:1F91       @istream_withassign@$bctr$qv
 59D7:20EE       @istream@ipfx$qi
 59D7:21F0       @istream@$bdtr$qv
 59D7:22D8       @istream_withassign@$bdtr$qv
 59D7:2427       @istream@eatwhite$qv
 59D7:24D4       @istream@$brsh$qmi
 59D7:27FE       @istream@$brsh$qml
 59D7:2A1F       @istream@read$qnci
 59D7:2B07       @ostream_withassign@$basg$qn9streambuf
 59D7:2B37       @ostream@$bctr$qv
 59D7:2C50       @ostream_withassign@$bctr$qv
 59D7:2DAD       @ostream@$bdtr$qv
 59D7:2EBF       @ostream_withassign@$bdtr$qv
 59D7:300E       @ostream@flush$qv
 59D7:314C       @ostream@$blsh$ql
 59D7:32CA idle  @ostream@$blsh$qul
 59D7:33E0       @ostream@do_opfx$qv
 59D7:3423       @ostream@do_osfx$qv
 59D7:347B       @ostream@outstr$qnxct1
 59D7:3773       @ostream@write$qnxci
 59D7:37C7       @streambuf@doallocate$qv
 59D7:3814       @streambuf@$bctr$qv
 59D7:3901       @streambuf@do_snextc$qv
 59D7:3931       @streambuf@do_sgetn$qnci
 59D7:39E9       @streambuf@do_sputn$qnxci
 59D7:3A91       @streambuf@$bdtr$qv
 59D7:3B22       @streambuf@overflow$qi
 59D7:3B2A       @streambuf@pbackfail$qi
 59D7:3B32       @streambuf@setbuf$qnci
 59D7:3B62       @streambuf@setb$qnct1i
 59D7:3C12       @streambuf@setg$qnct1t1
 59D7:3C7D       @streambuf@setp$qnct1
 59D7:3CCD       @streambuf@seekoff$ql12ios@seek_diri
 59D7:3CD8       @streambuf@seekpos$qli
 59D7:3CFF       @streambuf@sputn$qnxci
 59D7:3D73       @streambuf@sync$qv
 59D7:3DC3       @streambuf@underflow$qv
 59D7:3DFA       @ios@clear$qi
 59D7:3E38       @ios@$bctr$qv
 59D7:3EE9       @ios@$bdtr$qv
 59D7:4053       @ios@init$qn9streambuf
 59D7:40B3       @ios@setf$ql
 59D7:417A       @ios@setstate$qi
 59D7:41AA       @ios@tie$qn7ostream
 5DF8:0008       @string@$bctr$qmx6string
 5DF8:00F1       @string@$bctr$qnxc
 5DF8:030D       @string@$bdtr$qv
 5DF8:0394 idle  @string@assert_element$xqui
 5DF8:0452 idle  @string@assert_index$xqui
 5DF8:0510 idle  @TSubString@assert_element$xqui
 5DF8:05CB       @TStringRef@$bctr$qnxcuit1uiui
 5DF8:06B4       @TStringRef@$bdtr$qv
 5DF8:0715 idle  @TStringRef@reserve$qui
 5DF8:0783 idle  @TStringRef@check_freeboard$qv
 5DF8:07EB idle  @TStringRef@grow_to$qui
 5DF8:084D idle  @TStringRef@round_capacity$qui
 5DF8:088C idle  @TStringRef@splice$quiuinxcui
 5DF8:0A4B idle  @string@set_case_sensitive$qi
 5DF8:0A68 idle  @string@set_paranoid_check$qi
 5DF8:0A85 idle  @string@skip_whitespace$qi
 5DF8:0AA2 idle  @string@initial_capacity$qui
 5DF8:0ABF idle  @string@resize_increment$qui
 5DF8:0AE9 idle  @string@max_waste$qui
 5EBE:0000       _TANG
 60B2:0000       _st
 61B2:0000       _Par
 647B:0000 idle  DATASEG@
 647B:005A idle  __Int0Vector
 647B:005E idle  __Int4Vector
 647B:0062 idle  __Int5Vector
 647B:0066 idle  __Int6Vector
 647B:006A idle  __C0argc
 647B:006C idle  __C0argv
 647B:0070       __C0environ
 647B:0074       __envLng
 647B:0076       __envseg
 647B:0078       __envSize
 647B:007A       __psp
 647B:007C       __version
 647B:007C idle  __osmajor
 647B:007C idle  __osversion
 647B:007D idle  __osminor
 647B:007E       _errno
 647B:0080 idle  __Exception_list
 647B:0082 idle  ___brklvl
 647B:0084       __heapbase
 647B:0088       __brklvl
 647B:008C       __heaptop
 647B:0090       _NulTabl
 647B:0184       _KorTabl
 647B:0278       _ParTabl
 647B:036C       _MparTabl
 647B:0460       _ToolTabl
 647B:096C       _MSCAP
 647B:0974 idle  _MSXRD
 647B:097C idle  _MSXRS
 647B:0984       _MSEE
 647B:098E       _FCur
 647B:098F       _SnCur
 647B:0993       _SCur
 647B:0994 idle  _NumbS
 647B:0995       _Mode
 647B:0996       _InDev
 647B:09A0       _OutDev
 647B:0A8C       _CNC_Screen
 647B:0AB0 idle  _i_nab
 647B:0AB2       _shet
 647B:0AB4       _ssprr
 647B:0AB6       _ssarif
 647B:0AB8       _prz_nam
 647B:0ABA       _prz_nnm
 647B:0ABC       _mtf
 647B:0ADA       _ind_x
 647B:0ADC       _is
 647B:0ADE       _ib
 647B:0AE0       _im
 647B:0AE2       _sko
 647B:0AE4       _skz
 647B:0AE6 idle  _vri
 647B:0AE8       _exp_s
 647B:0AEA       _val_arf
 647B:0AF2       _cval
 647B:0AFA       _maf
 647B:0B12       _n_vk
 647B:0B16       _k_vk
 647B:0B18       _io
 647B:0B1A       _lwp
 647B:0B1C idle  _nomk
 647B:0B24       _ibf
 647B:0B26       _ibfp
 647B:0B28       _p_ar
 647B:0B2A       _p_cv
 647B:0B32 idle  @QParameter@headerPar
 647B:0B36 idle  @ComPortsData@convertStopBit
 647B:0B3A idle  @ComPortsData@convertParity
 647B:0B44 idle  @ComPortsData@convertBoud
 647B:0B74       @QParameter@3
 647B:0B90       _z_ktask
 647B:0B92       _z_ktasks
 647B:0B94       _z_ptask
 647B:0B96       _staskp
 647B:0B98 idle  _k_sum
 647B:0B9A idle  _ResetReady
 647B:0B9C idle  _Ready
 647B:0B9E       _Fpri
 647B:0BA6 idle  _S1pri
 647B:0BAE idle  _S2pri
 647B:0BB6 idle  _FCurVG
 647B:0BBE       _StepFid
 647B:0BFE       _PosSwitch
 647B:0C00       _DriveBlk
 647B:0C02 idle  _curx
 647B:0C04 idle  _cury
 647B:0C06 idle  _oldx0
 647B:0C08 idle  _cx1
 647B:0C0A idle  _cy1
 647B:0C0C idle  _insflag
 647B:0C0E idle  _parflag
 647B:0C10 idle  _flsym
 647B:0C12 idle  _atr1
 647B:0C13 idle  _atr3
 647B:0C14 idle  _bar1
 647B:0C18 idle  _reply
 647B:0C1C idle  _reply1
 647B:0C20 idle  _blanks
 647B:0C24 idle  _change_flag
 647B:0C26       _zvk
 647B:0C28       _ssw_sh
 647B:0C2A idle  _stat_sc
 647B:0C2C       _error_a
 647B:0C2E       _error_1
 647B:0C30       _statk
 647B:0C32       _statk1
 647B:0C34       _sscp
 647B:0C36       _sstaim
 647B:0C38       _sstaim1
 647B:0C3A       _wwtaim
 647B:0C3C       _wwtaims
 647B:0C3E       _strk
 647B:0C40       _ssrasp
 647B:0C42       _sswbyff
 647B:0C44       _prr
 647B:0C46       _sost
 647B:0C48       _sost1
 647B:0C4A       _DataRPS
 647B:0C4C       _DatCOM1
 647B:0C4E       _tim_rps
 647B:0C50 idle  _tim_com1
 647B:0C52       _i_time
 647B:0C56       __default87
 647B:0C58       __protected
 647B:0C5A idle  __LDT
 647B:0C60       __8087
 647B:0C62 idle  __huge_flt
 647B:0C66       __huge_dble
 647B:0C6E idle  __huge_ldble
 647B:0C78 idle  __max_flt
 647B:0C7C idle  __max_dble
 647B:0C84 idle  __max_ldble
 647B:0C8E idle  __indefinite
 647B:0C92 idle  __tiny_ldble
 647B:0C9C       __mathwhy
 647B:0E62       __wscroll
 647B:0E64       __video
 647B:0E74       __directvideo
 647B:0E7E       __cFlag
 647B:0E7F       __cChar
 647B:0E80       __streams
 647B:1268       __nfile
 647B:126A       __openfd
 647B:12CE       __fmode
 647B:12D0       __notUmask
 647B:12DC       __doserrno
 647B:12DE idle  __dosErrorToSV
 647B:1420 idle  __sys_errlist
 647B:14E0       __sys_nerr
 647B:175E       @filebuf@openprot
 647B:193E       @ios@basefield
 647B:1942       @ios@adjustfield
 647B:1946       @ios@floatfield
 647B:194A idle  @ios@nextbit
 647B:194E idle  @ios@usercount
 647B:195C       __localeconvention
 647B:1998       __ctype
 647B:1AB6 idle  __fdivflag
 647B:1AD0       __fpstklen
 647B:1B04       __stklen
 647B:1B06       ___xalloc
 647B:1B1C       __8086
 647B:1B1E       __atexitcnt
 647B:1B20       __exitbuf
 647B:1B24       __exitfopen
 647B:1B28       __exitopen
 647B:1B4C       __environ
 647B:1B8C idle  ___CPPexceptionList
 647B:1B90 idle  ___exceptFlags
 647B:1B92 idle  ___savedDS
 647B:1B94 idle  ___savedSI
 647B:1B96 idle  ___terminatePTR
 647B:1B9A idle  ___unexpectdPTR
 647B:1B9E idle  ___terminate_DS
 647B:1BA0 idle  ___unexpectd_DS
 647B:1BA2 idle  ___throwFileName
 647B:1BA6 idle  ___throwLineNumber
 647B:1BA8 idle  ___throwExceptionName
 647B:1BAC idle  ___exceptStaticBuffP
 647B:1BB0 idle  ___exceptMemAllocVars
 647B:1BB4 idle  ___exceptionNameBuff
 647B:1C34 idle  ___ExceptStaticXbuff
 647B:1CC6 idle  @string@case_sensitive
 647B:1CC8 idle  @string@paranoid_check
 647B:1CCA idle  @string@skip_white
 647B:1CCC idle  @string@initial_capac
 647B:1CCE idle  @string@resize_inc
 647B:1CD0 idle  @string@freeboard
 647B:1D2C       __RealCvtVector
 647B:1D30       __ScanTodVector
 647B:1E28 idle  _date1
 647B:1E2A idle  _date2
 647B:1E2C idle  _imm
 647B:1E2E idle  _insh
 647B:1E30 idle  _chcom1
 647B:1E32 idle  _fbuf
 647B:1E34 idle  _sherr
 647B:1E36       _is1
 647B:1E38       _is2
 647B:1E3A idle  _isc1
 647B:1E3C idle  _isc2
 647B:1E3E idle  _ikk
 647B:1E40 idle  _ipr
 647B:1E42 idle  _jpr
 647B:1E44 idle  _klpr
 647B:1E46       _dxstep
 647B:1E86       _codcap
 647B:1EA6       _nrastr
 647B:1EC6       _stime
 647B:1F06       _stimer
 647B:1F46 idle  _outcnc
 647B:1F48 idle  _incnc
 647B:1F4A idle  _cntq
 647B:1F4C idle  _cntout
 647B:1F4E idle  _kin
 647B:1F50 idle  _kout
 647B:1F52 idle  _t
 647B:1F54       _dir
 647B:1F74       _dirs
 647B:1F94       _revers
 647B:1FB4       _tin
 647B:1FB6       _tout
 647B:1FB8       _xreq
 647B:1FBA       _stzag
 647B:1FBC       _dron
 647B:1FBD       _zero
 647B:1FBE       _pnul
 647B:1FBF       _pnul1
 647B:1FC0       _endout
 647B:1FC2 idle  _sumpar
 647B:1FC4 idle  _shsum
 647B:1FC6       _shtaim
 647B:1FC8 idle  _minsum
 647B:1FCA       _wdrc
 647B:1FCC       _mtest
 647B:1FCD idle  _mtest1
 647B:1FCE       _mnul
 647B:1FEE       _dx
 647B:200E       _dxold
 647B:202E       _xtask1
 647B:206E       _xabs1
 647B:20AE       _xcorr
 647B:20EE       _spr
 647B:20F2       _spr1
 647B:20F6 idle  _avport
 647B:20F8 idle  _lon
 647B:20FA idle  _indst
 647B:20FB idle  _indsh
 647B:20FC idle  _indc
 647B:20FE idle  _NUM66
 647B:2100       _NS
 647B:2102 idle  _MAXST1
 647B:2104 idle  _MAXP
 647B:2106 idle  _kolst
 647B:2108 idle  _COD
 647B:210C idle  _nst
 647B:2114 idle  _mnint
 647B:2116 idle  _jb
 647B:2118 idle  _jb0
 647B:211A idle  _jb1
 647B:211C idle  _intt
 647B:211E idle  _shcikl
 647B:2120       _sss
 647B:2122 idle  _sss1
 647B:2124 idle  _indmas
 647B:2126 idle  _nimp
 647B:2146       _wcnc
 647B:2148       _kwcnc
 647B:214A       _msstat
 647B:214C       _msstat1
 647B:214E       _msstat2
 647B:216E       _stdrc
 647B:2172       _stdrc0
 647B:2176       _wms
 647B:217A       _msavr
 647B:217C       _xinf
 647B:219C       _xavar
 647B:21A0 idle  _wms_z
 647B:21A2       _SpeedS
 647B:21B2       _Atab
 647B:4CBC       _StQuKey
 647B:4CBE       _PtrNewVect
 647B:4CC2       _Ptroldvect
 647B:4CC6       _PtrIbmErr
 647B:4CCA       _PtrTimer
 647B:4CCE       _PtrNTimer
 647B:4CD2       _CurentMsg
 647B:4CD6       _Config
 647B:4CDA       _ModeTool
 647B:4CDE       _Mesage
 647B:4CE2       _Flag
 647B:4CE4       _CodKey
 647B:4CE5       _NumError
 647B:4CE6       _KlsError
 647B:4CE7       _IstError
 647B:4CE8       _RemError
 647B:4CEA       _BigFont
 647B:4CEE       _HandMax
 647B:4CFE       _FilePointer
 647B:4CFF       _CursPosition
 647B:4D00       _Extention
 647B:4D04       _CurFile
 647B:4D84       _Fh
 647B:4D85 idle  _OldCurs
 647B:4D86       _ModesM
 647B:4D88       _ModesA
 647B:4D8A       _ModesD
 647B:4D8C       _ModesE
 647B:4D8E       _ModesK
 647B:4D90       _MulticM
 647B:4D91       _MulticD
 647B:4D92       _MulticA
 647B:4D94       _OldModus
 647B:4D96       _CompilMesage
 647B:53A4       _Kb
 647B:5448       _AllAxIndicated
 647B:55F2 idle  _nt
 647B:55F6       _elast
 647B:5876 idle  _walk
 647B:5AF6       _differ
 647B:5B76       _tekv
 647B:5BF6       _rad
 647B:5BFE       _rsm0
 647B:5C7E       _sm0
 647B:5EFE       _f_tz
 647B:5F06 idle  _speed
 647B:5F0E idle  _c1
 647B:5F16 idle  _c2
 647B:5F1E idle  _x1
 647B:5F26 idle  _x2
 647B:5F2E idle  _y1
 647B:5F36 idle  _y2
 647B:5F3E       _hf1
 647B:5F46 idle  _ntc
 647B:5F4E       _xko
 647B:5F52       _polar
 647B:5FD2       _polm
 647B:6052       _pm
 647B:6056       _polt
 647B:60D6       _pt
 647B:60DA       _koef
 647B:615A       _kf
 647B:615E idle  _ka1
 647B:6166 idle  _ka2
 647B:616E idle  _kb1
 647B:6176 idle  _kb2
 647B:617E idle  _kx
 647B:6186 idle  _ky
 647B:618E idle  _rsin
 647B:6196 idle  _rcos
 647B:619E       _turn
 647B:61A6       _gam
 647B:61AE       _gam1
 647B:61B6 idle  _delta
 647B:61BE       _com
 647B:61C0       _num_kv
 647B:61C2 idle  _ind
 647B:61C4       _gg
 647B:61C8       _gk
 647B:61CC idle  _acc1
 647B:61D6 idle  _acc2
 647B:61E0 idle  _acc
 647B:61E2 idle  _fnomk
 647B:61EC idle  _n_ch
 647B:61EE       _kv_x
 647B:620E       _prrazg
 647B:622E idle  _ptorm
 647B:624E       _eftorm
 647B:6258       _efrazg
 647B:6262       _efsnig
 647B:626C       _efkdin
 647B:6276       _efa
 647B:6280       _nstrop
 647B:62D0 idle  _efname
 647B:62F8       _enomp
 647B:6302       _axn
 647B:63A2       _etask
 647B:63AC       _estask
 647B:63B6       _ogr25
 647B:63B8       _ogr26
 647B:63BA       _eindex
 647B:63C4       _esindex
 647B:63EC       _es
 647B:640C       _nextc
 647B:668C       _enext
 647B:690C idle  _lnextc
 647B:6B8C idle  _nextcf
 647B:6C0C       _enompb
 647B:6C16       _efnstr
 647B:6C20       _last
 647B:6CA0 idle  _lkl
 647B:6D20       _vd_vr
 647B:6D28       _ekl
 647B:6FA8 idle  _svint
 647B:6FF8       _cent
 647B:7278       _rcrug
 647B:72A0       _kf1
 647B:72C8       _kf2
 647B:72F0       _fi1
 647B:7318       _fi2
 647B:7340       _nlin
 647B:734A       _ef
 647B:7372       _efeok
 647B:737A       _exl25
 647B:73FA       _exr25
 647B:747A       _exl26
 647B:74FA       _exr26
 647B:757A       _nomkf
 647B:7584       _nombf
 647B:758E idle  __exp_r
 647B:7590       _eprkv
 647B:7592       _eprdin
 647B:7594 idle  _eprdin1
 647B:7596       _z_stps
 647B:759E       _ibr
 647B:75A0 idle  _nomyp
 647B:75A2       _gf
 647B:75D6       _g
 647B:760A       _ik1
 647B:760C       _ik2
 647B:760E idle  _ik3
 647B:7610       _ip1
 647B:7612       _ip2
 647B:7614       _ps
 647B:7616       _ps1
 647B:7618       _ps2
 647B:761A       _ph
 647B:761C       _ph1
 647B:761E       _ph2
 647B:7620       _distan2
 647B:7628       _err
 647B:7640       _ierr
 647B:7642 idle  _e_int
 647B:7644       _x
 647B:77D4       _nomn
 647B:77D6       _nomf
 647B:77D8       _mir
 647B:77DA       _cont
 647B:77DC       _kolt
 647B:77DE       _kolc
 647B:77E0       _ibm
 647B:77E2       _fnstr1
 647B:780A       _le2
 647B:7832       _mib
 647B:7838       _mb
 647B:783E       _n_beg
 647B:7846       _n_kon
 647B:784E       _n_kol
 647B:7856       _name_fo
 647B:7860       _name_kpp
 647B:7928 idle  _num_kpp
 647B:79B4       _name2_kpp
 647B:79B8 idle  _num_ps
 647B:79BC       _first_k
 647B:79BE       _scnd_k
 647B:79C0       _kop
 647B:79C2 idle  _str_ful
 647B:79C4       _var_x
 647B:79C8       _value_cc
 647B:79CA       _value_tc
 647B:79CC       _pro
 647B:79E4       _pros
 647B:79FC       _tab_kor_d
 647B:79FE       _tab_kor_h
 647B:7A00       _noms
 647B:7A02       _noms1
 647B:7A04       _ibfp1
 647B:7A06 idle  _nom_simv_pp
 647B:7A10       _nom_simv
 647B:7A12       _nom_simvo
 647B:7A14       _m1
 647B:7A1E       _m2
 647B:7A28       _m1_vk
 647B:7A33       _m2_vk
 647B:7A3E       _pcerr
 647B:7A60       _t_vk
 647B:7A80 idle  _ax
 647B:7A88       _nomst
 647B:7A90       _mf1
 647B:7AC7       _mf2
 647B:7AFE       _nam_vk
 647B:7B0A       _fp
 647B:7B0E       _fo
 647B:7B12       _pf
 647B:7B16 idle  _fpp1
 647B:7B1A       _fmg
 647B:7B1E       _fpp
 647B:7B22       _p_pr
 647B:7B26       _ftt
 647B:7B2A       _fmf
 647B:7B2E       _fgs
 647B:7B32       _fpi
 647B:7B36       _ppp
 647B:7B86       _name_pp
 647B:7BC2       _yp
 647B:7BD6       _byff
 647B:7C3A idle  _ccv
 647B:7C42       _slovor
 647B:7C44       _STR_ZZ
 647B:7C94       _mo1
 647B:7CC6       _mo2
 647B:7CF8       _I_X
 647B:7D1A       _I_D
 647B:7D1C       _I_I
 647B:7D1E       _I_J
 647B:7D20       _I_K
 647B:7D22       _I_H
 647B:7D24       _I_R
 647B:7D26       _I_Q
 647B:7D28       _I_N
 647B:7D2A       _I_F
 647B:7D2C       _I_S
 647B:7D34       _I_T
 647B:7D36       _I_A
 647B:7D38       _I_P
 647B:7D3A       _I_M
 647B:7D3C       _I_G
 647B:7D3E       _ii_05
 647B:7D46       _ii_19
 647B:7D4E       _ii_46
 647B:7D56       _pol_m
 647B:7D6A       _hf
 647B:7D72       _kor_d
 647B:7DF2       _rfr
 647B:7DFA idle  _name_yp
 647B:7E00       _mr
 647B:7F4A       _mg
 647B:82EA       _gs
 647B:8362       _KO
 647B:8364       _date
 647B:8365       _bitmap
 647B:83E2       _rpar
 647B:83E4       _namex1
 647B:83F4 idle  _full
 647B:83F6       _scom
 647B:83F8 idle  _dop_ykz
 647B:9398 idle  _nstrpar
 647B:939A idle  _nword
 647B:939C idle  _e
 647B:939E idle  _xint1
 647B:93A0 idle  _c
 647B:93A2       _sum
 647B:93A4       _adr_b
 647B:93A8       _ind_b
 647B:93AA       _ind_b1
 647B:93AC idle  _sumo
 647B:93AE idle  _fstrop
 647B:9796       _Fproc
 647B:979E       _Sproc
 647B:97BE       _ykz_byf
 647B:9886       __sindex
 647B:988E       _fway
 647B:98AA       _sway
 647B:98B6       _xkasan
 647B:98F6       _xk1
 647B:98F8       _xk2
 647B:98FA       _xk3
 647B:98FC       _xk4
 647B:98FE       _xk5
 647B:9900       _f_ind
 647B:9902       _fi
 647B:990A       _vkadr
 647B:998A       _xtask
 647B:99CA       _xkadr
 647B:9A0A       _xtest
 647B:9A4A idle  __xzad
 647B:9A8A       _dxpoz
 647B:9ACA       _dxmod
 647B:9B0A       _dluft
 647B:9B4A       _fost
 647B:9B8A       _slowtorm
 647B:9B8E       _storm0
 647B:9B92       _slowost
 647B:9B96       _ftakt
 647B:9B9E       _ftask
 647B:9BA6       _fek
 647B:9BAE       _maxsost
 647B:9BB6       _storm
 647B:9BBE       _vtakt
 647B:9C3E       _vtask
 647B:9CBE       _xtakt
 647B:9CDE idle  _endin
 647B:9CE0 idle  _slovo
 647B:9CE2 idle  _feks
 647B:9CE4       _fslow
 647B:9CE6       _refst
 647B:9D06       _refsts
 647B:9D0E       _ik
 647B:9D10       _xtimein
 647B:9D12       _xcntq
 647B:9D14       _xcntin
 647B:9D16       _xnin
 647B:9D18       _xnout
 647B:9D1A       _xsumin
 647B:9D1C idle  _xendin
 647B:9D1E       _nax
 647B:9D3E       _naxp
 647B:9D5E       _nf
 647B:9D60       _nfp
 647B:9D62       _ns
 647B:9D6A       _dxnum
 647B:9D8A       _msdrive
 647B:9E6A       _msnax
 647B:9F4A       _mshard
 647B:9F6C       _idr
 647B:9F6E idle  _inax
 647B:9F70       _ird
 647B:9F72       _sleg
 647B:9F74       _move
 647B:9F76       _ltorm
 647B:9F78       _ltorm1
 647B:9F7A       _sltorm
 647B:9F7C       _xdir
 647B:9F7E       _xdirs
 647B:9F80       _ax_on
 647B:9F82       _blmove
 647B:9F84       _ptask
 647B:9F86       _pptask
 647B:9F88       _ktask
 647B:9F8A       _ktasks
 647B:9F8C       _pktask
 647B:9F8E       _stasks
 647B:9F90       _blokMO
 647B:9F92       _MASKI
 647B:9F94       _MASKP
 647B:9F96       _kprkv
 647B:9F98       _rkalibr
 647B:9F9A       _xref
 647B:9F9C idle  _MQUIT
 647B:9F9E       _pdrive
 647B:9FA0       _zdrive
 647B:9FA2       _drives
 647B:9FA4       __ptask
 647B:9FA6       __stask
 647B:9FA8 idle  _xquit_z
 647B:9FAA idle  _qdron
 647B:9FAC       _sfi
 647B:9FCC       _win
 647B:9FD0       _wout
 647B:9FD4       _xbufin
 647B:9FD8       _pout
 647B:9FDC       _Spr
 647B:9FE0       _Spr1
 647B:9FE4       _qstop
 647B:9FE6       _rass
 647B:9FEA       _rassd
 647B:9FEE idle  _nstr
 647B:9FF2 idle  _fstr
 647B:9FF6       _xabs
 647B:9FFA       _xabsd
 647B:9FFE       _okey
 647B:A002       _xquit
 647B:A006       _cap0
 647B:A00A       _prxr
 647B:A00E       _prxq
 647B:A012       _prxz
 647B:A016       _prxk
 647B:A01A       _prxv
 647B:A01E       _stup
 647B:A022       _xcap
 647B:A026       _PROGKV
 647B:A02A idle  _xavar_z
 647B:A04A idle  _Spr_z
 647B:A05A idle  _Spr1_z
 647B:A06A idle  _stdrc_z
 647B:A06C idle  _stdrcz
 647B:A06E idle  _rass_z
 647B:A0AE idle  _rass_zd
 647B:A0EE idle  _nstr_z
 647B:A0F0 idle  _fstr_z
 647B:A0F2 idle  _xabs_z
 647B:A132 idle  _xabs_zd
 647B:A172 idle  _okey_z
 647B:A174 idle  _cap0_z
 647B:A176 idle  _prx_zr
 647B:A178 idle  _prx_zq
 647B:A17A idle  _prx_zz
 647B:A17C idle  _prx_zk
 647B:A17E idle  _prx_zv
 647B:A180 idle  _stup_z
 647B:A182 idle  _xcap_z
 647B:A1A2 idle  _PROGKV_z
 647B:A1C2       _pcnc
 647B:A1EA       _ncpc
 647B:A212 idle  _ConturOut
 647B:A252       _ReqQuKey
 647B:A254       _AxActive
 647B:A256 idle  _QuickPort
 647B:A25A       _DataReg
 647B:A25C       _ContrReg
 647B:A25E       _StatReg
 647B:A260 idle  _ced
 647B:A262 idle  _yylval
 647B:A264 idle  _numstr
 647B:A266 idle  _chp
 647B:A268 idle  _fun
 647B:A26A idle  _oldcurp
 647B:A26E idle  _buf
 647B:A272 idle  _endbuf
 647B:A276 idle  _endbufm
 647B:A27A idle  _curpage
 647B:A27E idle  _curptr
 647B:A282 idle  _curptr1
 647B:A286 idle  _mfl
 647B:A28A idle  _fileh
 647B:A28C idle  _file_path
 647B:A2AC idle  _file_path1
 647B:A2CC idle  _nflag
 647B:A2CE idle  _nfe
 647B:A2D0 idle  _repflg
 647B:A2D2 idle  _oneflag
 647B:A2D4 idle  _nstep
 647B:A2DC idle  _nbeg
 647B:A2E4 idle  _FILED
 647B:A2E8       _nzvk
 647B:A2F2       _nzvk1
 647B:A2FC       _nzvk2
 647B:A306       _nzvk3
 647B:A310       _stat_ea
 647B:A312       _stat_in
 647B:A314       _sp_chan
 647B:A31C       _inform
 647B:A31E       _tzbv
 647B:A320       _tzbv1
 647B:A322       _z_tzbv
 647B:A324       _z_tzbr
 647B:A326       _tzbv_z
 647B:A328       _v_tzbv
 647B:A32A idle  _tzbv_r
 647B:A32C       _tzbr
 647B:A32E       _tzbz
 647B:A330       _find_vk
 647B:A332       _task_vk
 647B:A334       _z_kop
 647B:A374       _tek_o
 647B:A3B4       _ztekos
 647B:A3F4       _tek_os
 647B:A434       _tek_vk
 647B:A474       _tek
 647B:A4F4       _f_6
 647B:A4FC       _k_6
 647B:A504       _st_s
 647B:A50C       _st_ds
 647B:A514       _uu2
 647B:A516       _SUP
 647B:A518       _SUN
 647B:A51A       _timer
 647B:A51C       _timer1
 647B:A51E       _par
 647B:A520       _imf
 647B:A522       _tm
 647B:A52A       _tmp
 647B:A532       _ts
 647B:A53A       _I_ER
 647B:A53C       _name_p
 647B:A578       _ykz_beg
 647B:A5B8 idle  _cin
 647B:A5E6       _cout
 647B:A612 idle  _cerr
 647B:A63E       _clog
 647B:A66A idle  ___stdin_streambuf
 647B:A66E idle  ___stdout_streambuf
 647B:A672 idle  ___stderr_streambuf
 647B:A676 idle  @ios@stdioflush
 647B:A67A       __new_handler
 647B:A682       __atexittbl
 647B:A702       ___SignalPtr
 647B:A70E idle  __DestructorCountPtr
 6EED:0020       __emu

Line numbers for cnciposs.obj(..\cncdrc\cnciposs.cpp) segment CNCIPOSS_TEXT

    14 0AC2:0000    19 0AC2:0008    20 0AC2:002A    21 0AC2:0037
    22 0AC2:0046    23 0AC2:0068    21 0AC2:0073    24 0AC2:0085
    29 0AC2:00E7    30 0AC2:00F2    37 0AC2:0178    38 0AC2:0183
    39 0AC2:01AA    40 0AC2:01CD    41 0AC2:01F9    42 0AC2:020F
    43 0AC2:022F    44 0AC2:0251    45 0AC2:0267    46 0AC2:02B7
    49 0AC2:02C6    50 0AC2:0314    57 0AC2:0338    59 0AC2:033C
    61 0AC2:0344    63 0AC2:034C    64 0AC2:036E    65 0AC2:0388
    75 0AC2:0394    76 0AC2:03B6    77 0AC2:03C6    82 0AC2:03E5
    83 0AC2:03F1    85 0AC2:0400    86 0AC2:0458    87 0AC2:0499
    89 0AC2:04AF    93 0AC2:04D3    94 0AC2:0503    95 0AC2:0539
    97 0AC2:054D    98 0AC2:0583   100 0AC2:059C   101 0AC2:05D2
   103 0AC2:05FB   104 0AC2:0630   109 0AC2:0663   111 0AC2:0693
   113 0AC2:0701   115 0AC2:0717   116 0AC2:076A   119 0AC2:07AB
   122 0AC2:07BF   124 0AC2:0823   126 0AC2:084C   127 0AC2:0881
   128 0AC2:08AF   132 0AC2:08D3   133 0AC2:0933   134 0AC2:0945
   136 0AC2:0996   142 0AC2:099A   145 0AC2:09A2   146 0AC2:09C4
   147 0AC2:09DC   151 0AC2:0A28   152 0AC2:0A37   155 0AC2:0A4B
   156 0AC2:0A59   158 0AC2:0A68   159 0AC2:0A79   160 0AC2:0A8D
   161 0AC2:0AA3   162 0AC2:0AB9   174 0AC2:0AD0   175 0AC2:0ADF
   176 0AC2:0AED   178 0AC2:0AFA
Line numbers for cnciopar.obj(..\cnccom\cnciopar.cpp) segment CNCIOPAR_TEXT

    28 0B71:00B5    30 0B71:00C9    31 0B71:00ED    32 0B71:00FA
    35 0B71:00FF    36 0B71:0113    37 0B71:0124    38 0B71:0137
    42 0B71:0164    43 0B71:0177    44 0B71:0184    46 0B71:0188
    48 0B71:0195    49 0B71:01B1
Line numbers for cncotl.obj(cncotl.cpp) segment CNCOTL_TEXT

    27 0BA5:0137    29 0BA5:013F    30 0BA5:014D    31 0BA5:015B
    33 0BA5:016B    34 0BA5:0170    37 0BA5:017C    40 0BA5:018C
    42 0BA5:01A6    47 0BA5:01BB    49 0BA5:01D6    51 0BA5:01F0
    53 0BA5:01FC    54 0BA5:0208    57 0BA5:020E    58 0BA5:021A
    61 0BA5:021F    64 0BA5:022B    65 0BA5:0239    66 0BA5:0261
    67 0BA5:0277    68 0BA5:028D    69 0BA5:02A3    70 0BA5:02B9
    71 0BA5:02E3    72 0BA5:02F9    78 0BA5:030F    82 0BA5:031D
    83 0BA5:0336    84 0BA5:034C    85 0BA5:0369    86 0BA5:0386
    94 0BA5:039F   104 0BA5:03AD   106 0BA5:03ED   107 0BA5:042D
   108 0BA5:0445   109 0BA5:045C   116 0BA5:0461   117 0BA5:046F
   118 0BA5:0485   119 0BA5:049B   120 0BA5:04B1   121 0BA5:04C7
   122 0BA5:04DD   123 0BA5:0504   160 0BA5:0509   163 0BA5:0517
   164 0BA5:052D   165 0BA5:0543   173 0BA5:056B   227 0BA5:0570
   229 0BA5:057B   230 0BA5:058D   231 0BA5:059B   232 0BA5:05A9
   233 0BA5:05B9   234 0BA5:05BE
Line numbers for cncsted.obj(..\cncshow\cncsted.cpp) segment CNCSTED_TEXT

    49 0C01:003E    51 0C01:0043    53 0C01:0052    54 0C01:0061
    55 0C01:0063    56 0C01:006F    57 0C01:0071    58 0C01:007D
    59 0C01:007F    60 0C01:0084    61 0C01:0086    62 0C01:008B
    63 0C01:008D    65 0C01:0094    66 0C01:0097    70 0C01:00A7
    72 0C01:00AC    73 0C01:00B4    75 0C01:00C3    77 0C01:00CB
    78 0C01:00E5    82 0C01:00F2    83 0C01:00FC    85 0C01:010C
    86 0C01:0130    87 0C01:0162    90 0C01:0164    91 0C01:0192
    92 0C01:01C4    93 0C01:01D0    96 0C01:01D4   102 0C01:01DD
   108 0C01:01E6   110 0C01:01EC   111 0C01:020B   116 0C01:0216
   117 0C01:0226   118 0C01:0235   119 0C01:023F   120 0C01:0252
   121 0C01:0260   125 0C01:0263   126 0C01:028F   128 0C01:02AA
   135 0C01:02BF   136 0C01:02CE   137 0C01:02DC   138 0C01:02DF
   139 0C01:02E2   140 0C01:02ED   141 0C01:02FC   142 0C01:030A
   143 0C01:030D   144 0C01:0310   146 0C01:031B   147 0C01:0342
   152 0C01:034D   154 0C01:0355   156 0C01:0362   158 0C01:036D
   161 0C01:0382   164 0C01:0397   165 0C01:03AB   170 0C01:03B4
   171 0C01:03C1   172 0C01:03D7   173 0C01:03E7   174 0C01:03FD
   175 0C01:0414   176 0C01:042C   180 0C01:043A   181 0C01:043F
   180 0C01:0454   182 0C01:045D   186 0C01:046C   188 0C01:0471
   189 0C01:0487   190 0C01:0499   191 0C01:04C2   193 0C01:04CA
   196 0C01:04DF   198 0C01:0513   154 0C01:0534   152 0C01:054A
   203 0C01:055C   204 0C01:056F   205 0C01:057D   206 0C01:0582
   207 0C01:0587   208 0C01:058C   209 0C01:0598   210 0C01:059F
   211 0C01:05A6   213 0C01:05B0   217 0C01:05B4   219 0C01:05B6
   221 0C01:05D0   222 0C01:05D5   225 0C01:05DA   226 0C01:05E6
   227 0C01:05EC   228 0C01:05EF   231 0C01:05F7   236 0C01:05FF
   237 0C01:062B   239 0C01:0646   248 0C01:065B   249 0C01:0676
   251 0C01:0691   252 0C01:069D   255 0C01:06A9   256 0C01:06CA
   258 0C01:06D1   259 0C01:06E1   260 0C01:06EF   251 0C01:06FE
   265 0C01:0709   267 0C01:0713   268 0C01:0728   270 0C01:0741
   271 0C01:0755   272 0C01:076D   273 0C01:0781   275 0C01:0799
   276 0C01:07A1   279 0C01:07AE   280 0C01:07CF   281 0C01:07D6
   285 0C01:07E7   286 0C01:07F9   287 0C01:080B   288 0C01:081F
   289 0C01:0833   290 0C01:0846   291 0C01:0859   295 0C01:0867
   296 0C01:0870   297 0C01:0877   296 0C01:088E   298 0C01:0897
   302 0C01:0899   305 0C01:089E   306 0C01:08B1   308 0C01:08BF
   276 0C01:08C5   275 0C01:08DB   312 0C01:08ED   315 0C01:08F9
   319 0C01:08FD   324 0C01:0905   325 0C01:0921   326 0C01:0929
   329 0C01:0931   330 0C01:0957   334 0C01:095E   336 0C01:0974
   337 0C01:0981   339 0C01:098D   340 0C01:0999   326 0C01:09C3
   325 0C01:09CE   343 0C01:09DB   344 0C01:09ED   345 0C01:09F6
   346 0C01:0A00   347 0C01:0A05   353 0C01:0A3B   354 0C01:0A44
   355 0C01:0A49   359 0C01:0A4D   361 0C01:0A4F   362 0C01:0A5A
   364 0C01:0A5F   365 0C01:0A61
Line numbers for cncuzsm.obj(..\cncunpac\cncuzsm.cpp) segment CNCUZSM_TEXT

    19 0CA7:0004    21 0CA7:000C    22 0CA7:0020    23 0CA7:003F
    24 0CA7:00A7    26 0CA7:00C7    21 0CA7:00DA    28 0CA7:00F2
    29 0CA7:010D    30 0CA7:011C    31 0CA7:0178    29 0CA7:0198
    33 0CA7:01AB    34 0CA7:01C3    35 0CA7:01DB    44 0CA7:01DF
    48 0CA7:01E7    50 0CA7:020A    51 0CA7:020F    52 0CA7:0211
    53 0CA7:0216    54 0CA7:0218    55 0CA7:021D    56 0CA7:021F
    57 0CA7:0224    60 0CA7:023F    61 0CA7:025C    63 0CA7:02AC
    65 0CA7:02CC    59 0CA7:02DF    67 0CA7:02F7    68 0CA7:0312
    69 0CA7:0328    70 0CA7:036C    68 0CA7:038C    72 0CA7:039E
    73 0CA7:03B6    74 0CA7:03CE    75 0CA7:03D2    79 0CA7:03DA
    80 0CA7:03E9    82 0CA7:0408    83 0CA7:043E    84 0CA7:0484
    86 0CA7:04A4    79 0CA7:04B7    88 0CA7:04CB    90 0CA7:04F4
    91 0CA7:0540    93 0CA7:05B8    95 0CA7:05E4    96 0CA7:0629
    98 0CA7:06A1    99 0CA7:06B9
Line numbers for cncuzero.obj(..\cncunpac\cncuzero.cpp) segment CNCUZERO_TEXT

    27 0D12:000D    32 0D12:0015    34 0D12:002C    35 0D12:005E
    36 0D12:0081    37 0D12:0090    38 0D12:00B3    41 0D12:00C2
    42 0D12:00E5    43 0D12:0108    44 0D12:0115    45 0D12:013D
    43 0D12:015C    47 0D12:016D    48 0D12:01C2    49 0D12:01D1
    32 0D12:01E0    52 0D12:01F8
Line numbers for cncuzcp.obj(..\cncunpac\cncuzcp.cpp) segment CNCUZCP_TEXT

    24 0D31:000C    34 0D31:0014    35 0D31:003D    36 0D31:004B
    38 0D31:0059    39 0D31:0070    41 0D31:0090    42 0D31:009C
    43 0D31:00CC    44 0D31:00E9    41 0D31:0108    46 0D31:0119
    47 0D31:0159    48 0D31:0174    49 0D31:018D    50 0D31:01B4
    52 0D31:01C0    53 0D31:01DA    50 0D31:029D    57 0D31:02AE
    58 0D31:02B3    57 0D31:02D1    59 0D31:02DA    60 0D31:02E6
    61 0D31:02EE    60 0D31:0300    63 0D31:030C    64 0D31:0332
    65 0D31:0341    66 0D31:0350    67 0D31:03A9    68 0D31:03E3
    69 0D31:03FD    70 0D31:040E    71 0D31:0421    72 0D31:0434
    73 0D31:0447    74 0D31:0458    77 0D31:0464    78 0D31:0474
    79 0D31:0495    80 0D31:04BD    81 0D31:04D1    82 0D31:04F0
    84 0D31:0508    68 0D31:0554    63 0D31:0570    88 0D31:0588
    89 0D31:05A0    91 0D31:05AF    92 0D31:05C6    93 0D31:05D2
    94 0D31:05DE    95 0D31:05EA    96 0D31:05F6    97 0D31:0602
    98 0D31:060E    99 0D31:061A   100 0D31:0626   101 0D31:0632
   102 0D31:063E   103 0D31:064A   104 0D31:0656   105 0D31:0662
   106 0D31:066E   107 0D31:067A   108 0D31:0686   109 0D31:0692
   110 0D31:069E   111 0D31:06BF   112 0D31:06CB   113 0D31:06D7
   114 0D31:06E3   115 0D31:06F3   116 0D31:0719   117 0D31:073D
   118 0D31:074F   119 0D31:0761   120 0D31:077C   122 0D31:078A
   123 0D31:07A0   124 0D31:07B6   125 0D31:07CC   126 0D31:07D6
   125 0D31:07E2   120 0D31:07EE   128 0D31:07FE   129 0D31:0816
   130 0D31:082D   132 0D31:083C   133 0D31:0856   134 0D31:0864
   135 0D31:087A   136 0D31:0888   137 0D31:0897   130 0D31:08B1
   139 0D31:08C4   140 0D31:08D4   141 0D31:08ED   142 0D31:0905
Line numbers for cncuwkp.obj(..\cncunpac\cncuwkp.cpp) segment CNCUWKP_TEXT

    16 0DC1:006B    23 0DC1:0073    24 0DC1:007F    25 0DC1:0089
    26 0DC1:0095    28 0DC1:00A1    29 0DC1:00A6    30 0DC1:00DF
    26 0DC1:0117    32 0DC1:0128    33 0DC1:012D    34 0DC1:0166
    35 0DC1:017D    36 0DC1:0196    37 0DC1:01CD    38 0DC1:01D2
    39 0DC1:020B    40 0DC1:0241    41 0DC1:0250    43 0DC1:0261
    44 0DC1:026D    45 0DC1:0279    46 0DC1:0285    47 0DC1:028A
    48 0DC1:0296    49 0DC1:029B    50 0DC1:02D4    51 0DC1:0316
    52 0DC1:034D    56 0DC1:0374    60 0DC1:0390    62 0DC1:03C9
    63 0DC1:03D4    64 0DC1:03D8    67 0DC1:03DA    68 0DC1:03ED
    71 0DC1:03F5    72 0DC1:03FD    74 0DC1:043A    75 0DC1:045C
    77 0DC1:046A    78 0DC1:047E    79 0DC1:048C    80 0DC1:0498
    81 0DC1:04A4    82 0DC1:04B0    83 0DC1:04C0    84 0DC1:04CF
    85 0DC1:04D4    86 0DC1:050D    87 0DC1:054F    88 0DC1:0580
    71 0DC1:05B4    94 0DC1:05C7    95 0DC1:05D5    97 0DC1:05E0
    98 0DC1:05EC    99 0DC1:05F8   100 0DC1:060F   101 0DC1:061A
   102 0DC1:0626   105 0DC1:0667   113 0DC1:066F   115 0DC1:067C
   116 0DC1:0681   118 0DC1:06AF   119 0DC1:0705   120 0DC1:0711
   121 0DC1:072E   122 0DC1:074A   124 0DC1:0757   127 0DC1:0796
   128 0DC1:07A1   129 0DC1:07AD   133 0DC1:07BA   136 0DC1:07F3
   137 0DC1:07FE   138 0DC1:0809   141 0DC1:0815   142 0DC1:084E
   143 0DC1:085B   144 0DC1:087D   145 0DC1:0888   146 0DC1:0893
   149 0DC1:089F   150 0DC1:08AB   151 0DC1:08E4   153 0DC1:091D
Line numbers for cncuwerr.obj(..\cncunpac\cncuwerr.cpp) segment CNCUWERR_TEXT

    18 0E53:001B    21 0E53:0023    22 0E53:0027    23 0E53:0057
    28 0E53:00A2    30 0E53:00AF    31 0E53:00BD    33 0E53:010F
    34 0E53:011A    36 0E53:011C    28 0E53:013A    38 0E53:0151
    39 0E53:0161    40 0E53:017F    42 0E53:018A    43 0E53:0195
    44 0E53:01A1
Line numbers for cncusim.obj(..\cncunpac\cncusim.cpp) segment CNCUSIM_TEXT

    19 0E6D:0005    22 0E6D:000D    24 0E6D:0012    25 0E6D:001F
    26 0E6D:002C    30 0E6D:0039    33 0E6D:004F    35 0E6D:0056
    36 0E6D:0062    37 0E6D:0067    39 0E6D:0074    40 0E6D:0088
    42 0E6D:008A    34 0E6D:008F    44 0E6D:00A2    45 0E6D:00AF
    47 0E6D:00B4    48 0E6D:00B8    50 0E6D:00BA    51 0E6D:00D5
    53 0E6D:00DD    54 0E6D:00EB    55 0E6D:00F9    56 0E6D:0107
    58 0E6D:0138    61 0E6D:013D    63 0E6D:0151    64 0E6D:015C
    66 0E6D:015E    67 0E6D:016B    68 0E6D:017F    69 0E6D:018B
    70 0E6D:0196    72 0E6D:01A6    75 0E6D:01AB    76 0E6D:01B8
    77 0E6D:01D6    78 0E6D:01E0    79 0E6D:01E5    83 0E6D:020C
    84 0E6D:0219    85 0E6D:021E    86 0E6D:022B    88 0E6D:0241
    89 0E6D:024C    90 0E6D:0261    91 0E6D:026D    95 0E6D:0270
    96 0E6D:028B    97 0E6D:0298    98 0E6D:02C0   100 0E6D:02C5
   101 0E6D:02DC   103 0E6D:02E9   104 0E6D:02FD   107 0E6D:0309
Line numbers for cncur_pr.obj(..\cncunpac\cncur_pr.cpp) segment CNCUR_PR_TEXT

    35 0E9D:0106    41 0E9D:010F    42 0E9D:0114    77 0E9D:0119
    78 0E9D:0129    79 0E9D:0136    80 0E9D:013E    78 0E9D:0146
    82 0E9D:015D    83 0E9D:0164    84 0E9D:0169    83 0E9D:0177
    82 0E9D:0180    85 0E9D:018C    86 0E9D:0192    87 0E9D:019E
    88 0E9D:01A4    89 0E9D:01AA    90 0E9D:01B6    91 0E9D:01BC
    93 0E9D:01C1    94 0E9D:01DF    91 0E9D:01FD   100 0E9D:0206
   101 0E9D:020F   103 0E9D:023E   104 0E9D:0261   105 0E9D:027B
   106 0E9D:0291   110 0E9D:02CF   111 0E9D:030B   112 0E9D:0325
   113 0E9D:0343   114 0E9D:0347   118 0E9D:034A   122 0E9D:0385
   123 0E9D:03A0   124 0E9D:03A5   125 0E9D:03D7   127 0E9D:03E4
   128 0E9D:03EF   129 0E9D:03FB   130 0E9D:041B   131 0E9D:042E
   135 0E9D:0431   136 0E9D:0451   137 0E9D:045B   138 0E9D:048F
   139 0E9D:04A5   142 0E9D:04A8   147 0E9D:04AC   149 0E9D:04B2
   151 0E9D:04E5   152 0E9D:04EF   153 0E9D:04FA   156 0E9D:04FD
   157 0E9D:052D   158 0E9D:055D   160 0E9D:0577   162 0E9D:057E
   164 0E9D:05AA   165 0E9D:05BD   166 0E9D:05D1   160 0E9D:05DC
   170 0E9D:05E8   172 0E9D:05F8   173 0E9D:0609   174 0E9D:060E
   175 0E9D:0613   176 0E9D:0626   177 0E9D:0631   178 0E9D:0666
   181 0E9D:066A   182 0E9D:0670   183 0E9D:0696   185 0E9D:06A4
   186 0E9D:06C3   187 0E9D:06CE   189 0E9D:06FC   190 0E9D:071F
   193 0E9D:0737   194 0E9D:0767   195 0E9D:0797   196 0E9D:07A1
   197 0E9D:07AD   198 0E9D:07B8   199 0E9D:07C8   200 0E9D:07CD
   201 0E9D:07D9   203 0E9D:07E5   205 0E9D:07ED   206 0E9D:0810
   207 0E9D:0816   208 0E9D:081C   210 0E9D:0823   211 0E9D:0849
   212 0E9D:0859   208 0E9D:0869   215 0E9D:0874   216 0E9D:087C
   217 0E9D:089F   219 0E9D:08A5   220 0E9D:08B9   221 0E9D:08C7
   222 0E9D:08D2   224 0E9D:08D4   215 0E9D:08FF   226 0E9D:0912
   228 0E9D:091F   229 0E9D:094F   233 0E9D:0970   234 0E9D:09A0
   236 0E9D:09C1   238 0E9D:09C6   239 0E9D:09E9   241 0E9D:09EF
   242 0E9D:09FB   243 0E9D:0A09   244 0E9D:0A14   246 0E9D:0A16
   236 0E9D:0A40   248 0E9D:0A4B   249 0E9D:0A6E   250 0E9D:0A87
   251 0E9D:0AAB   252 0E9D:0ACF   254 0E9D:0ADF   256 0E9D:0AF1
   257 0E9D:0AF8   258 0E9D:0B09   260 0E9D:0B1F   261 0E9D:0B3A
   262 0E9D:0B41   257 0E9D:0B4C   264 0E9D:0B65   266 0E9D:0B78
   267 0E9D:0BA6   268 0E9D:0BB8   270 0E9D:0BCF   275 0E9D:0BD8
   278 0E9D:0C04   279 0E9D:0C27   280 0E9D:0C4A   281 0E9D:0C69
   283 0E9D:0C7A   285 0E9D:0C92   286 0E9D:0CB5   287 0E9D:0CD8
   288 0E9D:0CEA   291 0E9D:0D10   292 0E9D:0D33   293 0E9D:0D56
   294 0E9D:0D68   297 0E9D:0D77   298 0E9D:0D9A   299 0E9D:0DBD
   301 0E9D:0DCF   302 0E9D:0DE5   303 0E9D:0DED   312 0E9D:0DFB
   315 0E9D:0E0C   316 0E9D:0E2F   317 0E9D:0E52   319 0E9D:0E64
   320 0E9D:0E95   321 0E9D:0EBA   325 0E9D:0EE6   326 0E9D:0F09
   327 0E9D:0F2C   329 0E9D:0F3E   345 0E9D:0F52   346 0E9D:0F75
   347 0E9D:0F98   348 0E9D:0FBB   349 0E9D:0FDF   351 0E9D:0FF1
   352 0E9D:100E   353 0E9D:1024   354 0E9D:102A   355 0E9D:105F
   360 0E9D:10A5   361 0E9D:10B3   362 0E9D:10E4   363 0E9D:10EE
   364 0E9D:110B   365 0E9D:1119   368 0E9D:111C   369 0E9D:1120
   371 0E9D:1127   372 0E9D:1131   374 0E9D:1135   375 0E9D:1142
   377 0E9D:1149   378 0E9D:114E   379 0E9D:1187   380 0E9D:11AA
   381 0E9D:11CD   382 0E9D:1204   383 0E9D:1251   384 0E9D:1257
   385 0E9D:1292   386 0E9D:12D0   388 0E9D:12E0   390 0E9D:12FC
   391 0E9D:1307   392 0E9D:1313   394 0E9D:1316   397 0E9D:1334
   400 0E9D:1355   401 0E9D:135B   403 0E9D:137A   407 0E9D:13BF
   408 0E9D:13EB   410 0E9D:140F   411 0E9D:1423   412 0E9D:1441
   414 0E9D:146C   415 0E9D:148A   416 0E9D:14AA   418 0E9D:14D2
   420 0E9D:1505   422 0E9D:1547   425 0E9D:15A6   427 0E9D:15F2
   428 0E9D:1612   430 0E9D:1643   431 0E9D:1683   435 0E9D:169C
   437 0E9D:16C9   438 0E9D:16CF   441 0E9D:16D2   442 0E9D:16DF
   444 0E9D:16E6   445 0E9D:16EB   446 0E9D:1723   447 0E9D:173A
   448 0E9D:1754   449 0E9D:1795   450 0E9D:17CD   453 0E9D:17D0
   454 0E9D:180C   459 0E9D:1813   460 0E9D:1820   462 0E9D:1827
   463 0E9D:182C   464 0E9D:1861   465 0E9D:188C   466 0E9D:18C3
   468 0E9D:18D3   469 0E9D:190B   470 0E9D:1911   471 0E9D:193B
   472 0E9D:1945   474 0E9D:1952   479 0E9D:1957   481 0E9D:1988
   482 0E9D:1992   483 0E9D:199C   486 0E9D:199E   496 0E9D:19A6
   497 0E9D:19AB   501 0E9D:19B5   503 0E9D:19C4   505 0E9D:19D4
   506 0E9D:1A0F   507 0E9D:1A4C   508 0E9D:1A53   510 0E9D:1A5F
   511 0E9D:1A6B   514 0E9D:1ADD   516 0E9D:1AF8   518 0E9D:1B08
   519 0E9D:1B13   522 0E9D:1B16   527 0E9D:1B28   528 0E9D:1B43
   532 0E9D:1B66   533 0E9D:1B83   534 0E9D:1BB8   535 0E9D:1BC2
   538 0E9D:1BC4   546 0E9D:1BF6   548 0E9D:1C16   549 0E9D:1C1A
   552 0E9D:1C1F   554 0E9D:1C31   557 0E9D:1C40   563 0E9D:1C6F
   564 0E9D:1C77   566 0E9D:1CA4   572 0E9D:1CA6   578 0E9D:1CD3
   579 0E9D:1CD9   588 0E9D:1D10   591 0E9D:1D1B   592 0E9D:1D29
   594 0E9D:1D35   597 0E9D:1D41   602 0E9D:1D49   603 0E9D:1D50
   604 0E9D:1D6B   607 0E9D:1D8F   608 0E9D:1DAC   610 0E9D:1DB0
   613 0E9D:1DD9   614 0E9D:1DE3   615 0E9D:1DF6   616 0E9D:1DFA
   618 0E9D:1E09   624 0E9D:1E11   625 0E9D:1E2C   628 0E9D:1E50
   629 0E9D:1E6D   631 0E9D:1E71   634 0E9D:1EA2   635 0E9D:1EAC
   636 0E9D:1EBF
Line numbers for cncunums.obj(..\cncunpac\cncunums.cpp) segment CNCUNUMS_TEXT

    27 1089:0003    38 1089:000B    40 1089:0014    41 1089:0025
    43 1089:0032    44 1089:0052    41 1089:0076    40 1089:0091
    47 1089:00AE    49 1089:010E    50 1089:011A    51 1089:012B
    52 1089:015C    53 1089:0169    54 1089:017D    56 1089:018D
    57 1089:019A    60 1089:01F2    61 1089:0201    62 1089:020B
    63 1089:021A    65 1089:0222    67 1089:0236    68 1089:0242
    69 1089:024E    70 1089:025A    72 1089:0263    75 1089:02BB
    76 1089:02CA    77 1089:02D4    78 1089:02E3    80 1089:02EB
    82 1089:02FF    83 1089:030B    84 1089:0317    85 1089:0323
    87 1089:032C    91 1089:037E    92 1089:038A    93 1089:0398
    94 1089:03A7    95 1089:03B3    97 1089:03CC    98 1089:03DB
    99 1089:03E8   102 1089:0401   103 1089:040C   107 1089:0462
   108 1089:0471   109 1089:048A   110 1089:04A2   111 1089:04B0
   112 1089:04BE   114 1089:04CD   115 1089:04E6   116 1089:04F2
   118 1089:0503   120 1089:0512   121 1089:052B   124 1089:0539
   102 1089:0546   127 1089:0560   131 1089:05BA   132 1089:05C9
   133 1089:05E2   134 1089:05EE   135 1089:05FC   136 1089:060B
   137 1089:0624   139 1089:0630   140 1089:063F   141 1089:0658
    53 1089:0665   145 1089:067A   146 1089:0689   147 1089:069A
   149 1089:06C6   151 1089:06D7   152 1089:06E6   154 1089:0706
   156 1089:0710   157 1089:073D   161 1089:0780   163 1089:0788
   165 1089:079A   166 1089:07B2   167 1089:07CA   168 1089:07CC
   170 1089:07DB   172 1089:080D   173 1089:0824   167 1089:0826
   176 1089:082C   177 1089:083D   178 1089:084B   179 1089:0857
   161 1089:0859   182 1089:0864   187 1089:0879   189 1089:0888
   190 1089:08A1   193 1089:08AD   195 1089:08B7   193 1089:090F
   199 1089:0927   200 1089:0939   202 1089:0946   203 1089:0959
   205 1089:099D   206 1089:09AE   207 1089:09C7   208 1089:09D4
   211 1089:09D7   212 1089:09DA   216 1089:09EC   218 1089:09FB
   219 1089:0A14   221 1089:0A21   225 1089:0A51   226 1089:0A56
   228 1089:0A68   229 1089:0A89   230 1089:0AAA   231 1089:0AAC
   233 1089:0ABB   235 1089:0AF1   236 1089:0B08   230 1089:0B0A
   239 1089:0B10   240 1089:0B1E   241 1089:0B2F   242 1089:0B3D
   225 1089:0B3F   245 1089:0B4A   246 1089:0B50   252 1089:0B9D
   259 1089:0BAA   260 1089:0BEF   262 1089:0C02   265 1089:0C22
   266 1089:0C31   267 1089:0C62   269 1089:0C71   270 1089:0C8F
   273 1089:0CA8   275 1089:0CB7   276 1089:0CD5   278 1089:0CF5
   280 1089:0D14   283 1089:0D53   284 1089:0D70   287 1089:0DAF
    47 1089:0DCC   290 1089:0E23
Line numbers for cncunumf.obj(..\cncunpac\cncunumf.cpp) segment CNCUNUMF_TEXT

    26 116B:0007    29 116B:000F    34 116B:0044    35 116B:0053
    39 116B:0062    40 116B:006F    42 116B:0074    44 116B:0084
    45 116B:00A0    46 116B:00BA    47 116B:00CE    51 116B:00DB
    52 116B:00ED    53 116B:00FB    55 116B:0113    58 116B:0125
    59 116B:0130    60 116B:013B    61 116B:0147    62 116B:0153
    63 116B:0160    65 116B:016D    66 116B:0178    67 116B:019F
    68 116B:01AD    69 116B:01B9    71 116B:01BC    75 116B:01D3
    76 116B:01EE    78 116B:01F6    79 116B:0204    80 116B:0212
    82 116B:0243    83 116B:024E    84 116B:0259    86 116B:025C
    87 116B:026B    88 116B:0280    89 116B:0287    88 116B:02A7
    90 116B:02B8    92 116B:02C2    93 116B:02C7    96 116B:032C
    97 116B:033A    99 116B:036F    92 116B:037C   103 116B:0387
   104 116B:038D   105 116B:03A1   107 116B:03AD   108 116B:03B5
   109 116B:03C7   110 116B:03D5   113 116B:040A   114 116B:0415
   115 116B:0422   116 116B:042C   120 116B:043B   121 116B:0448
   122 116B:0452   123 116B:045F   107 116B:046B   127 116B:0479
   128 116B:047F   129 116B:0493   130 116B:04A8   131 116B:04AD
   133 116B:04B2   134 116B:04D7   137 116B:04E0   139 116B:04E8
   153 116B:04F6   155 116B:0504   156 116B:052B   157 116B:0537
   159 116B:0539   160 116B:0544   162 116B:054F   164 116B:055D
   165 116B:0581   167 116B:058F   168 116B:059B   169 116B:05A7
   170 116B:05AC   171 116B:05B1   172 116B:05BB   173 116B:05C5
   175 116B:05DA   176 116B:05E5   178 116B:05EF   180 116B:05F4
   183 116B:05FB   184 116B:0609   190 116B:061F   191 116B:0638
   192 116B:064D   193 116B:0650   194 116B:065D   195 116B:0669
   189 116B:066F   197 116B:067D   198 116B:0686   199 116B:069F
   200 116B:06A6   201 116B:06AB   203 116B:06B9   204 116B:06D0
   205 116B:06E7   206 116B:06FC   207 116B:0715   209 116B:072A
   210 116B:0738   211 116B:0742   214 116B:0745   215 116B:075F
   216 116B:0771   222 116B:0787   226 116B:0798   227 116B:07A5
   228 116B:07D3   229 116B:07DF   231 116B:07F4   232 116B:080D
   233 116B:0824   234 116B:0839   235 116B:084C   236 116B:0865
   238 116B:087A   243 116B:0882   262 116B:08A2   263 116B:08B0
   265 116B:08B7   266 116B:08BC   267 116B:08C9   268 116B:08D3
   270 116B:08DC   271 116B:08E5   272 116B:08EB   273 116B:0904
   274 116B:0929   275 116B:0944   276 116B:0954   280 116B:096A
   282 116B:097A   283 116B:0982   284 116B:09A8   286 116B:09BD
   287 116B:09D6   289 116B:09EB   290 116B:09F6   291 116B:0A00
   293 116B:0A02   296 116B:0A0A   298 116B:0A17   299 116B:0A30
   300 116B:0A3B   304 116B:0A3D   305 116B:0A48   282 116B:0A4A
   309 116B:0A55   310 116B:0A5D   313 116B:0A74   314 116B:0A90
   315 116B:0A9E   318 116B:0AAB   319 116B:0AB6   326 116B:0ABB
   327 116B:0AC9   328 116B:0ADC   329 116B:0AF5   332 116B:0B00
   337 116B:0B0B   338 116B:0B13   340 116B:0B1D   344 116B:0B4C
   346 116B:0B56   347 116B:0B80   348 116B:0B8A   349 116B:0B94
   350 116B:0B9E   351 116B:0BA8   352 116B:0BAF   357 116B:0BB1
   358 116B:0BDE   359 116B:0BE8   360 116B:0BF2   362 116B:0BFD
   364 116B:0C05   366 116B:0C14   367 116B:0C2A   364 116B:0C46
   370 116B:0C58   373 116B:0C5A   374 116B:0C65   375 116B:0C6A
   376 116B:0C6F   377 116B:0C7A   378 116B:0C7F   379 116B:0C84
   380 116B:0C90   381 116B:0C9A   384 116B:0C9E   385 116B:0CA3
   335 116B:0CA8   388 116B:0CB0   389 116B:0CBE   390 116B:0CC8
   202 116B:0CE3   392 116B:0CFA   393 116B:0D04   394 116B:0D0E
   395 116B:0D13   396 116B:0D1D   397 116B:0D25   401 116B:0D2D
   403 116B:0D37   404 116B:0D61   409 116B:0D83   410 116B:0DB0
   416 116B:0DE7   418 116B:0DED   427 116B:0DF5   428 116B:0DFB
   429 116B:0E01   433 116B:0E22   437 116B:0E41   438 116B:0E5F
   435 116B:0E67   440 116B:0E7F   441 116B:0E82   442 116B:0E88
   443 116B:0E99   446 116B:0EA1   447 116B:0EA9   448 116B:0EB1
   450 116B:0EBC   451 116B:0EC4   452 116B:0ECF   453 116B:0EDB
   454 116B:0EE7   455 116B:0EF3   458 116B:0F05   459 116B:0F17
   460 116B:0F28   463 116B:0F48   464 116B:0F54   465 116B:0F60
   466 116B:0F6C   467 116B:0F78   468 116B:0F7D   469 116B:0FB8
   470 116B:0FFC   471 116B:1035   472 116B:106E   474 116B:1070
   475 116B:10A6   480 116B:10B3   481 116B:10C6   484 116B:10DA
   486 116B:10DE   488 116B:10E6   491 116B:10F8   494 116B:1102
   497 116B:110C   500 116B:1116   501 116B:112C   504 116B:113B
   505 116B:1146   509 116B:114B   510 116B:116F   512 116B:1171
   513 116B:1175   514 116B:1183   516 116B:118B   517 116B:1199
   518 116B:119D   519 116B:11A6   521 116B:11A8   522 116B:11AE
   524 116B:11BA   530 116B:11C4   536 116B:11CC   537 116B:11E7
   539 116B:1202   543 116B:120A   545 116B:1233   546 116B:1240
   548 116B:1249   549 116B:124D
Line numbers for cncunul.obj(..\cncunpac\cncunul.cpp) segment CNCUNUL_TEXT

     5 1290:0001     7 1290:0003     9 1290:0006    11 1290:0008
    14 1290:000B    16 1290:000D    18 1290:0010    20 1290:0012
Line numbers for cncunp3.obj(..\cncunpac\cncunp3.cpp) segment CNCUNP3_TEXT

    40 1291:0021    60 1291:0029    61 1291:0037    64 1291:003F
    66 1291:004F    69 1291:0073    70 1291:0078    72 1291:007F
    73 1291:0084    74 1291:009A    75 1291:00A4    76 1291:00BA
    77 1291:00C4    79 1291:00CA    81 1291:00D6    82 1291:00E3
    83 1291:00E7    82 1291:0106    79 1291:010F    85 1291:011F
    93 1291:0121    95 1291:012F    96 1291:0134    98 1291:0149
   103 1291:0163   104 1291:017F   107 1291:018B   109 1291:0199
   110 1291:01A5   113 1291:01AA   115 1291:01B6   116 1291:01D6
   118 1291:01E6   119 1291:01F1   128 1291:0200   130 1291:020E
   131 1291:0228   132 1291:0232   133 1291:023D   135 1291:0240
   137 1291:025A   138 1291:0265   140 1291:0268   141 1291:0276
   142 1291:0296   143 1291:02A1   144 1291:02B9   145 1291:02D1
   147 1291:02D6   150 1291:02D9   151 1291:02DE   152 1291:02EC
   154 1291:0310   155 1291:0314   156 1291:0344   157 1291:035D
   158 1291:038E   159 1291:03B7   160 1291:03BC   161 1291:03D7
   166 1291:03EE   168 1291:03F2   169 1291:03FC   172 1291:0405
   173 1291:040B   164 1291:040D   175 1291:043E   177 1291:044A
   178 1291:045C   180 1291:0468   182 1291:048C   183 1291:0490
   184 1291:04C0   185 1291:04D9   186 1291:050A   187 1291:0533
   188 1291:0538   189 1291:0553   194 1291:056A   196 1291:056E
   197 1291:0578   200 1291:0581   201 1291:0587   192 1291:0589
   203 1291:05BA   205 1291:05C6   206 1291:05D8   208 1291:05E4
   210 1291:05F2   211 1291:05FC   213 1291:05FF   214 1291:060D
   216 1291:0610   217 1291:062C   218 1291:0647   220 1291:0654
   221 1291:0661   222 1291:066C   224 1291:06A5   225 1291:06AF
   227 1291:06CE   228 1291:06DC   229 1291:06EA   230 1291:06F4
   231 1291:070B   234 1291:070D   235 1291:0724   237 1291:072F
   246 1291:074B   247 1291:0774   248 1291:079A   249 1291:07C3
   250 1291:07E9   251 1291:0806   258 1291:0827   259 1291:0842
   260 1291:0845   261 1291:087C   263 1291:0889   264 1291:0894
   265 1291:08A1   266 1291:08BE   268 1291:08DF   269 1291:090A
   270 1291:0934   272 1291:0974   273 1291:0984   274 1291:098F
   276 1291:09AE   278 1291:09F9   279 1291:0A30   281 1291:0A35
   283 1291:0A54   284 1291:0A7E   286 1291:0AC8   287 1291:0AD4
   299 1291:0BD2   300 1291:0BE4   301 1291:0BFE   302 1291:0C2A
   303 1291:0C41   305 1291:0C94   308 1291:0CAC   309 1291:0CC0
   313 1291:0CD0   314 1291:0CDC   315 1291:0CF0   317 1291:0CFC
   325 1291:0DE5   328 1291:0DEF   330 1291:0E0E   331 1291:0E2B
   332 1291:0E3B   333 1291:0E4D   334 1291:0E5A   336 1291:0E73
   337 1291:0E8A   339 1291:0E96   341 1291:0EBF   342 1291:0EE2
   344 1291:0F03   345 1291:0F11   346 1291:0F23   347 1291:0F2F
   348 1291:0F3C   349 1291:0F56   352 1291:0F6E   353 1291:0F7C
   354 1291:0F8E   355 1291:0F9A   356 1291:0FA7   357 1291:0FC1
   359 1291:0FD9   361 1291:0FE9   362 1291:1001   364 1291:1010
   366 1291:1024   368 1291:1043   370 1291:10A1   371 1291:10B3
   372 1291:10D9   373 1291:10F1   374 1291:10F3   375 1291:10FD
   364 1291:1110   378 1291:1128   379 1291:1145   382 1291:1151
   383 1291:115D   384 1291:116F   386 1291:117B   388 1291:1199
   389 1291:11A8   390 1291:11FB   391 1291:1205   392 1291:1211
   395 1291:1231   396 1291:125A   398 1291:1290   400 1291:12D8
   401 1291:12E8   402 1291:133B   403 1291:1345   404 1291:134D
   403 1291:135D   405 1291:1369   406 1291:1375   409 1291:1395
   411 1291:13C0   412 1291:13F4   413 1291:1406   415 1291:1420
   416 1291:1437   418 1291:1480   419 1291:1496   420 1291:14A2
   422 1291:14A4   424 1291:14EC   426 1291:1520   427 1291:152B
   428 1291:1558   429 1291:1578   431 1291:1585   432 1291:159D
   433 1291:15B5   436 1291:15B7   437 1291:15CF   439 1291:15E7
   440 1291:15F3   441 1291:15FF   443 1291:161E   444 1291:162C
   445 1291:1631   447 1291:1669   450 1291:169F   452 1291:16AB
   453 1291:16B0   454 1291:16BB   456 1291:16E5   458 1291:16F5
   459 1291:170D   460 1291:1718   462 1291:1727   464 1291:173B
   466 1291:175A   468 1291:17B6   469 1291:17C8   470 1291:17E4
   471 1291:17FC   472 1291:17FE   473 1291:1808   462 1291:181B
   476 1291:1833   477 1291:1850   480 1291:185C   481 1291:1868
   482 1291:187A   484 1291:1886   486 1291:1896   487 1291:18A5
   488 1291:18B0   489 1291:18D8   490 1291:190D   493 1291:1938
   494 1291:1950   495 1291:196C   497 1291:197A   498 1291:19A0
   499 1291:19B2   501 1291:19B5   502 1291:19CD   503 1291:19E9
   505 1291:19F7   506 1291:1A1D   507 1291:1A2F   509 1291:1A32
   510 1291:1A4A   511 1291:1A66   513 1291:1A74   517 1291:1A9C
   518 1291:1AB4   519 1291:1AD0   521 1291:1ADE   522 1291:1B04
   524 1291:1B16   488 1291:1B29   527 1291:1B51   529 1291:1B54
   530 1291:1B5B   531 1291:1B75   532 1291:1B8F   533 1291:1B9F
   529 1291:1BB1   535 1291:1BBD   536 1291:1BC9   537 1291:1BD5
   539 1291:1BE0   540 1291:1BF2   541 1291:1BFE   543 1291:1C01
   544 1291:1C0F   545 1291:1C1A   546 1291:1C24   548 1291:1C74
   545 1291:1C7E   550 1291:1C8C   552 1291:1C9C   553 1291:1CAE
   555 1291:1CCB   556 1291:1CE3   557 1291:1D0C   558 1291:1D28
   559 1291:1D32   560 1291:1D3E   565 1291:1D58   566 1291:1D7B
   568 1291:1D9C   569 1291:1DC5   570 1291:1DE1   571 1291:1DEB
   576 1291:1DF9   577 1291:1E1C   581 1291:1E3F   582 1291:1E57
   583 1291:1E63   584 1291:1E65   585 1291:1E73   586 1291:1E7F
   588 1291:1E97   590 1291:1EA5   591 1291:1EBD   592 1291:1EC9
   593 1291:1ECB   594 1291:1EE3   596 1291:1EF3   597 1291:1F1C
   598 1291:1F28   599 1291:1F4D   600 1291:1F5F   601 1291:1F6B
   602 1291:1F88   605 1291:1F8C   606 1291:1F9A   608 1291:1FA8
   609 1291:1FB6   610 1291:1FC8   612 1291:1FD4   613 1291:1FE2
   614 1291:1FF4   616 1291:2000   618 1291:2005   619 1291:200F
   620 1291:2042   622 1291:206C   623 1291:2079   625 1291:208D
   626 1291:209B   618 1291:20AF   632 1291:20BF   633 1291:20EF
   634 1291:20F9   635 1291:20FE   636 1291:210E   637 1291:2120
   638 1291:213C   639 1291:2146   640 1291:2161   641 1291:216E
   643 1291:217B   644 1291:2193   647 1291:2196   650 1291:21B1
   651 1291:21C3   661 1291:21C6   662 1291:21CB   665 1291:21CE
   667 1291:21D1   669 1291:21E1   670 1291:21F3   674 1291:2249
   675 1291:224E   676 1291:2265   677 1291:226A   678 1291:227C
   680 1291:227F   685 1291:2286   686 1291:229D   687 1291:22AF
   688 1291:22B4   689 1291:22C6   691 1291:22C9   695 1291:22D0
   696 1291:22E7   697 1291:22FC   698 1291:2306   701 1291:2309
   702 1291:230E   703 1291:2320   704 1291:2323   705 1291:233A
   706 1291:233F   710 1291:2342   711 1291:2359   713 1291:2360
   715 1291:2362   717 1291:2370   718 1291:237D   719 1291:2388
   720 1291:2395   721 1291:23A1   722 1291:23BB   723 1291:23C0
   724 1291:23D2   726 1291:23DE   728 1291:23F8   729 1291:2405
   732 1291:2411   733 1291:2416   734 1291:241B   735 1291:2429
   736 1291:2447   121 1291:2449   741 1291:24BE   747 1291:254E
   748 1291:2553   750 1291:255E   751 1291:256B   752 1291:2589
   754 1291:2597   756 1291:25C1   760 1291:25CF   762 1291:25DD
   763 1291:25E8   764 1291:25F3   765 1291:25FF   766 1291:260B
   767 1291:2617   770 1291:2621
Line numbers for cncunp2.obj(..\cncunpac\cncunp2.cpp) segment CNCUNP2_TEXT

    29 14F6:0099    37 14F6:00A1    43 14F6:00A8    42 14F6:00BA
    44 14F6:00CA    45 14F6:00CC    44 14F6:00E8    46 14F6:00EE
    48 14F6:00FE    49 14F6:0105    48 14F6:0123    50 14F6:012E
    51 14F6:0196    52 14F6:01AD    53 14F6:01C5    54 14F6:01D4
    55 14F6:01FB    56 14F6:021E    57 14F6:0229    59 14F6:023B
    60 14F6:0265    61 14F6:0288    62 14F6:0293    63 14F6:02BD
    64 14F6:02E0    65 14F6:02EB    67 14F6:02F6    68 14F6:0320
    69 14F6:0343    73 14F6:0348    75 14F6:0366    76 14F6:0371
    79 14F6:037C    80 14F6:0387    81 14F6:03B2    82 14F6:03D6
    83 14F6:03E1    85 14F6:03F4    86 14F6:041C    87 14F6:043F
    88 14F6:044A    89 14F6:0472    90 14F6:0495    91 14F6:04A0
    92 14F6:04C8    93 14F6:04EB    94 14F6:04F6    95 14F6:0500
    96 14F6:050B    98 14F6:052E    99 14F6:0539   100 14F6:0546
   102 14F6:0548    95 14F6:054D   108 14F6:055A    94 14F6:0569
   112 14F6:0576   113 14F6:0580   114 14F6:058E   116 14F6:05B0
   117 14F6:05BB   118 14F6:05D1   120 14F6:05D3   124 14F6:05D8
   113 14F6:05E6   126 14F6:05F3   112 14F6:060B   128 14F6:061A
   129 14F6:061F   131 14F6:0650   132 14F6:065B   133 14F6:0679
   135 14F6:067B   128 14F6:0680   140 14F6:0689   144 14F6:0698
   148 14F6:06C2   149 14F6:06CD   151 14F6:06D0   152 14F6:06D5
   153 14F6:06E1   154 14F6:06ED   155 14F6:06F9   156 14F6:0705
   157 14F6:0710   158 14F6:071D   160 14F6:072D   161 14F6:075B
   162 14F6:0767   163 14F6:076C   164 14F6:0771   165 14F6:077E
   167 14F6:0785   169 14F6:0793   170 14F6:07A6   171 14F6:07B9
   172 14F6:07C6   174 14F6:07CE   176 14F6:07DB   177 14F6:07E8
   178 14F6:07ED   179 14F6:07F2   180 14F6:0805   181 14F6:0818
   182 14F6:082B   183 14F6:083E   185 14F6:084E   186 14F6:0878
   187 14F6:089B   188 14F6:08A6   190 14F6:08AB   191 14F6:08B2
   190 14F6:08C4   192 14F6:08D4   193 14F6:08D6   192 14F6:08F2
   194 14F6:08F8   196 14F6:0908   197 14F6:090F   196 14F6:092D
   198 14F6:0938   199 14F6:0944   200 14F6:0968   203 14F6:0977
   204 14F6:0984   205 14F6:099E   208 14F6:09A6   210 14F6:09C7
   211 14F6:09D3   215 14F6:09D6   216 14F6:09E2   217 14F6:09E7
   218 14F6:0A01   219 14F6:0A05   220 14F6:0A2E   222 14F6:0A51
   223 14F6:0A5C   224 14F6:0A68   226 14F6:0A6A   227 14F6:0A6E
   228 14F6:0A97   230 14F6:0ABA   231 14F6:0AC6   232 14F6:0AD1
   206 14F6:0AD3   237 14F6:0ADB   238 14F6:0AEE   239 14F6:0AFB
   241 14F6:0B00   244 14F6:0B0F   245 14F6:0B1C   246 14F6:0B21
   247 14F6:0B34   248 14F6:0B47   249 14F6:0B5A   250 14F6:0B6D
   251 14F6:0B80   252 14F6:0B93   253 14F6:0BA6   257 14F6:0BDC
   258 14F6:0C06   259 14F6:0C29   260 14F6:0C34   264 14F6:0C41
   266 14F6:0C5F   267 14F6:0C6A   268 14F6:0C75   271 14F6:0C7A
   272 14F6:0C8D   273 14F6:0CA0   276 14F6:0CB3   279 14F6:0CCB
   283 14F6:0CD3   284 14F6:0CFD   285 14F6:0D20   286 14F6:0D2B
   287 14F6:0D53   288 14F6:0D76   289 14F6:0D81   290 14F6:0D90
   291 14F6:0D9C   292 14F6:0DA9   293 14F6:0DCE   295 14F6:0DDC
   296 14F6:0DE2   298 14F6:0DED   300 14F6:0E08   301 14F6:0E14
   302 14F6:0E3F   304 14F6:0E4B   305 14F6:0E59   307 14F6:0E64
   308 14F6:0E70
Line numbers for cncunp1.obj(..\cncunpac\cncunp1.cpp) segment CNCUNP1_TEXT

    32 15DD:01AD    40 15DD:01B6    41 15DD:01C0    44 15DD:01D2
    51 15DD:01F0    52 15DD:01F5    53 15DD:020B    54 15DD:0239
    55 15DD:023E    56 15DD:025A    60 15DD:0269    59 15DD:0279
    61 15DD:02B4    62 15DD:02BA    63 15DD:02C2    65 15DD:02EF
    66 15DD:02F6    65 15DD:030A    67 15DD:0317    69 15DD:031A
    71 15DD:033C    73 15DD:036C    74 15DD:0373    76 15DD:037D
    77 15DD:0382    78 15DD:0387    79 15DD:0390    83 15DD:0393
    84 15DD:0398    85 15DD:03A1    88 15DD:03A4    90 15DD:03E5
    92 15DD:03FE    93 15DD:0403    94 15DD:0428    95 15DD:0448
    96 15DD:0461    98 15DD:0485    99 15DD:048F   100 15DD:04C0
   101 15DD:04CB   102 15DD:04DC   103 15DD:04E3   105 15DD:0513
   106 15DD:0527   110 15DD:0550   112 15DD:0567   114 15DD:056E
   115 15DD:057D   117 15DD:059B   119 15DD:05A3   120 15DD:05AE
   122 15DD:05B5   123 15DD:05EB   126 15DD:05F9   128 15DD:0603
   135 15DD:0606   137 15DD:061C   138 15DD:0626   139 15DD:0657
   140 15DD:0662   141 15DD:0673   142 15DD:067C   143 15DD:0685
   145 15DD:06A2   146 15DD:06AC   145 15DD:06BB   147 15DD:06D1
   148 15DD:06E1   149 15DD:06EB   150 15DD:06F8   149 15DD:070B
   151 15DD:0712   153 15DD:071C   155 15DD:0723   156 15DD:0759
   159 15DD:0767   168 15DD:0774   170 15DD:078A   171 15DD:079B
   172 15DD:07B1   173 15DD:07BC   174 15DD:07E9   175 15DD:07F4
   176 15DD:0800   177 15DD:0814   178 15DD:082B   175 15DD:083B
   179 15DD:0852   180 15DD:0878   181 15DD:0885   180 15DD:0898
   182 15DD:089F   183 15DD:08A9   185 15DD:08B0   186 15DD:08E6
   189 15DD:08F4   191 15DD:08FC   192 15DD:0933    62 15DD:0936
   196 15DD:0943   197 15DD:0951    58 15DD:0957   199 15DD:095F
   200 15DD:096B   201 15DD:0985   203 15DD:0990   204 15DD:099D
   205 15DD:09C3   206 15DD:09D2   207 15DD:09EC   208 15DD:09F7
   209 15DD:0A11   210 15DD:0A1C   211 15DD:0A24   212 15DD:0A5B
   214 15DD:0AA9   215 15DD:0ACE   218 15DD:0AD5   219 15DD:0B0C
   220 15DD:0B5A   222 15DD:0B65   223 15DD:0B9F   221 15DD:0BA6
   224 15DD:0BDA   210 15DD:0BE6   227 15DD:0BF3   228 15DD:0C04
   229 15DD:0C11   230 15DD:0C3F   231 15DD:0C61   232 15DD:0C94
   233 15DD:0CC3   235 15DD:0D11   236 15DD:0D2E   239 15DD:0D35
   240 15DD:0D64   241 15DD:0DB2   243 15DD:0DD1   244 15DD:0E0B
   242 15DD:0E29   228 15DD:0E5F   227 15DD:0E73   247 15DD:0E86
Line numbers for cncuintf.obj(..\cncunpac\cncuintf.cpp) segment CNCUINTF_TEXT

    26 16C5:000A    29 16C5:0012    38 16C5:0044    40 16C5:007A
    41 16C5:0084    45 16C5:0087    46 16C5:00AE    47 16C5:00BF
    51 16C5:00DA    52 16C5:00FA    53 16C5:0112    55 16C5:012E
    56 16C5:0162    59 16C5:01A3    60 16C5:01C0    63 16C5:0201
    64 16C5:021E    67 16C5:0259    45 16C5:0266    78 16C5:0292
    80 16C5:02BF    82 16C5:030D    84 16C5:0351    85 16C5:0361
    88 16C5:03A3    89 16C5:03B3
Line numbers for cncugran.obj(..\cncunpac\cncugran.cpp) segment CNCUGRAN_TEXT

    20 1701:0001    22 1701:0009    23 1701:000E    27 1701:0013
    34 1701:002F    33 1701:0043    35 1701:0077    36 1701:008D
    38 1701:0094    39 1701:00A9    41 1701:00B0    42 1701:00C5
    44 1701:00CC    45 1701:00D1    46 1701:00D9    47 1701:00E0
    49 1701:010B    50 1701:011D    48 1701:0122    52 1701:0138
    54 1701:0148    55 1701:0154    56 1701:0159    57 1701:0169
    55 1701:0176    64 1701:017F    69 1701:01ED    70 1701:01FA
    73 1701:0207    74 1701:020C    75 1701:021C    76 1701:0242
    77 1701:0259    73 1701:025B    80 1701:0264    81 1701:0283
    82 1701:02AC    83 1701:02C2    84 1701:02D9    85 1701:02F1
    90 1701:030B    92 1701:031B    96 1701:034A    97 1701:035F
   100 1701:036C   101 1701:0371   102 1701:0379   104 1701:0389
   105 1701:03AA   107 1701:03CB   108 1701:03D5   109 1701:03E8
   110 1701:03FB   101 1701:03FD   113 1701:040B   115 1701:0411
   117 1701:041D   119 1701:0429   120 1701:0439   122 1701:044A
   123 1701:0453   125 1701:0465   126 1701:046F   119 1701:0471
   130 1701:047D   131 1701:049C   132 1701:04A6   134 1701:04C0
   135 1701:04DF   139 1701:04F9   140 1701:0507   142 1701:0514
   144 1701:0527   145 1701:0535   148 1701:0542   150 1701:0589
   151 1701:0593   152 1701:05BC   153 1701:05C6   157 1701:05D6
   159 1701:05E6   162 1701:05F6   164 1701:063C   166 1701:0649
   170 1701:0651   172 1701:0663   174 1701:06B3   175 1701:06BD
   176 1701:06E6   177 1701:06F0   180 1701:0700   182 1701:0712
   184 1701:072C   187 1701:076A   188 1701:0774   190 1701:077D
   193 1701:078D   197 1701:079A   198 1701:07A2   200 1701:07B7
   202 1701:07F5   205 1701:0801   207 1701:082E   208 1701:0838
   211 1701:0841   213 1701:084B   197 1701:0862   216 1701:0879
   218 1701:088B   219 1701:08AD   221 1701:08B9   224 1701:0906
   225 1701:0910   229 1701:0927
Line numbers for cncugr4.obj(..\cncunpac\cncugr4.cpp) segment CNCUGR4_TEXT

    22 1793:000B    24 1793:0013    28 1793:0038    29 1793:0043
    30 1793:0052    31 1793:0076    32 1793:009A    33 1793:00AC
    34 1793:00BE    35 1793:00D9    36 1793:00EB    37 1793:0102
    38 1793:0119    39 1793:0125    40 1793:0128    41 1793:0137
    42 1793:015B    43 1793:017F    44 1793:0191    45 1793:01A3
    46 1793:01BE    47 1793:01D0    48 1793:01E7    49 1793:01FE
    50 1793:020A    51 1793:020D    52 1793:021C    53 1793:0240
    54 1793:0264    55 1793:0276    56 1793:0288    57 1793:02A3
    58 1793:02B5    59 1793:02CC    60 1793:02E3    61 1793:02EF
    63 1793:02F2    64 1793:030C    65 1793:0323    66 1793:033A
    68 1793:033C    69 1793:0353    71 1793:036A    72 1793:036F
    73 1793:037B    74 1793:03AC    75 1793:03B2    77 1793:03C1
    78 1793:03CE    79 1793:03D1    81 1793:03E4    72 1793:03EA
    84 1793:0401    85 1793:0407    87 1793:0414    89 1793:048C
    90 1793:04A0    93 1793:04B1    94 1793:04CF    97 1793:04FC
    98 1793:0517    99 1793:0532   100 1793:0544   103 1793:0550
Line numbers for cncuform.obj(..\cncunpac\cncuform.cpp) segment CNCUFORM_TEXT

    33 17E8:0004    41 17E8:000C    43 17E8:001C    44 17E8:0021
    45 17E8:002E    46 17E8:0046    48 17E8:00A3    49 17E8:00BB
    51 17E8:00CA    53 17E8:00FC    54 17E8:0121    55 17E8:0144
    56 17E8:0169    57 17E8:018C    58 17E8:01C1    59 17E8:01E8
    60 17E8:01F5    61 17E8:0209    62 17E8:022E    65 17E8:023D
    66 17E8:0262    67 17E8:0285    68 17E8:02AA    49 17E8:02CD
    71 17E8:02E0    72 17E8:030E    73 17E8:0326    74 17E8:0354
    75 17E8:036C    76 17E8:039A    77 17E8:03B2    78 17E8:03E0
    79 17E8:03F8    80 17E8:0410    81 17E8:0422    82 17E8:0431
    83 17E8:0436    85 17E8:047D    86 17E8:0489    88 17E8:0498
    98 17E8:05E5    99 17E8:05EA   100 17E8:062F   101 17E8:0636
   102 17E8:063B   103 17E8:0647   107 17E8:064C   110 17E8:06A1
   111 17E8:06A6   113 17E8:06F4   115 17E8:06FC   117 17E8:074D
   118 17E8:0753   120 17E8:076B   122 17E8:077F   123 17E8:07BD
   124 17E8:07FD   125 17E8:0849   127 17E8:0869   128 17E8:0889
   129 17E8:08D3   131 17E8:08F3   132 17E8:0913   133 17E8:091E
   134 17E8:092F   136 17E8:0931   138 17E8:093B   139 17E8:0947
   140 17E8:095F   141 17E8:096D   142 17E8:097B   146 17E8:0987
   147 17E8:099A   148 17E8:09A9   150 17E8:09B9   151 17E8:09CE
   152 17E8:09D4   154 17E8:09E6   155 17E8:09EB   156 17E8:09F1
   158 17E8:09F3   160 17E8:09FA   161 17E8:09FF   162 17E8:0A05
   164 17E8:0A07   166 17E8:0A0E   167 17E8:0A13   168 17E8:0A1F
   170 17E8:0A21   171 17E8:0A27   173 17E8:0A30   176 17E8:0A80
   178 17E8:0AB7   179 17E8:0AF7   181 17E8:0B0E   182 17E8:0B1B
   184 17E8:0B29   188 17E8:0B37   189 17E8:0B41   190 17E8:0B53
   193 17E8:0B5D   194 17E8:0B89   195 17E8:0BB5   196 17E8:0BE1
   197 17E8:0C0D   198 17E8:0C59   199 17E8:0CA7   200 17E8:0CF5
   207 17E8:0D45   208 17E8:0D4E   209 17E8:0D53   212 17E8:0D63
   213 17E8:0D84   214 17E8:0DA5   215 17E8:0DC6   216 17E8:0DCE
   215 17E8:0DE9   217 17E8:0DF4   218 17E8:0E26   219 17E8:0E3D
   220 17E8:0E6D   221 17E8:0EB5   222 17E8:0EBF   221 17E8:0ED1
   223 17E8:0EE5   225 17E8:0EF5   226 17E8:0EFA   225 17E8:0F18
   229 17E8:0F21   230 17E8:0F25   238 17E8:0F2D   246 17E8:0F4D
   249 17E8:0F65   253 17E8:0F95   254 17E8:0F9A   257 17E8:0FC4
   258 17E8:0FD0   262 17E8:0FD3   263 17E8:0FDF   265 17E8:0FFA
   266 17E8:1004   267 17E8:1020   268 17E8:1035   272 17E8:104F
   273 17E8:106B   279 17E8:1077   281 17E8:1087   282 17E8:1093
   284 17E8:10E6   287 17E8:1116   288 17E8:1121   289 17E8:112C
   290 17E8:1138   291 17E8:1142   293 17E8:115A   296 17E8:115D
   297 17E8:117C   298 17E8:11AD   299 17E8:11E2   300 17E8:1214
   301 17E8:1245   302 17E8:12A0   303 17E8:1309   304 17E8:1372
   305 17E8:13A4   306 17E8:13EE   307 17E8:1425   308 17E8:145C
   309 17E8:1490   310 17E8:14C2   311 17E8:14D1   313 17E8:152C
   315 17E8:1588   316 17E8:15C3   317 17E8:15EA   318 17E8:1619
   320 17E8:1649   321 17E8:1687   322 17E8:16CE   310 17E8:1715
   326 17E8:1729   330 17E8:172C   331 17E8:1756   332 17E8:177C
   333 17E8:17A2   334 17E8:17C8   335 17E8:17EE   336 17E8:1818
   337 17E8:1835   339 17E8:1871   340 17E8:188D   341 17E8:18C2
   342 17E8:18F4   343 17E8:1926   345 17E8:1930   346 17E8:1955
   348 17E8:1983   349 17E8:1985   350 17E8:19C2   343 17E8:1A0C
   353 17E8:1A1B   354 17E8:1A27   356 17E8:1A84   357 17E8:1AA1
   359 17E8:1ADE   361 17E8:1AFF   362 17E8:1B35   364 17E8:1B6B
   365 17E8:1B96   366 17E8:1BC1   367 17E8:1BEC   368 17E8:1C17
   369 17E8:1C28   370 17E8:1C41   372 17E8:1C4F   373 17E8:1C6C
   375 17E8:1CC5   382 17E8:1D34   383 17E8:1D62   385 17E8:1D82
   386 17E8:1DE4   387 17E8:1E46   388 17E8:1E9A   389 17E8:1EC5
   390 17E8:1F08   391 17E8:1F38   392 17E8:1F68   393 17E8:1F91
   395 17E8:1FB8   397 17E8:1FD5   398 17E8:2029   399 17E8:207D
   400 17E8:20D1   401 17E8:2125   402 17E8:2173   403 17E8:21C2
   404 17E8:21F0   405 17E8:2228   406 17E8:2236   408 17E8:225E
   409 17E8:2293   410 17E8:22C9   412 17E8:22E6   413 17E8:2320
   414 17E8:235C   415 17E8:2398   416 17E8:23D4   395 17E8:2412
   419 17E8:242E   420 17E8:2435   422 17E8:247C   423 17E8:24A9
   419 17E8:24D7   426 17E8:24E4   427 17E8:2522   428 17E8:2569
   430 17E8:25B0   432 17E8:25C2   434 17E8:25F0   435 17E8:2639
   436 17E8:2647   437 17E8:2670   430 17E8:2692   440 17E8:26AF
   441 17E8:26BC   442 17E8:26C9   443 17E8:26F7   444 17E8:2725
   446 17E8:2728   447 17E8:2734   448 17E8:2742   440 17E8:2750
   450 17E8:275E   451 17E8:277E   452 17E8:279E   454 17E8:27C4
   455 17E8:2811   456 17E8:2831   457 17E8:2853   458 17E8:2872
   460 17E8:2881   461 17E8:28A1   462 17E8:28DA   467 17E8:28EA
   469 17E8:28FB   470 17E8:291B   471 17E8:293D   472 17E8:2962
   473 17E8:2997   476 17E8:29CF   477 17E8:29FC   478 17E8:2A02
   479 17E8:2A3B   483 17E8:2A88   484 17E8:2A8E   486 17E8:2AAC
   487 17E8:2AC8   488 17E8:2AD4   489 17E8:2AE3   491 17E8:2AE8
   492 17E8:2AF9   493 17E8:2B19   494 17E8:2B3B   495 17E8:2B60
   496 17E8:2B71   497 17E8:2B7F   499 17E8:2B82   500 17E8:2BA1
   501 17E8:2BBF   502 17E8:2BDF   503 17E8:2C02   504 17E8:2C24
   506 17E8:2C29   507 17E8:2C49   508 17E8:2C84   452 17E8:2CA9
   512 17E8:2CD5   513 17E8:2CE8   512 17E8:2D0F   516 17E8:2D1E
   517 17E8:2D2E   518 17E8:2D40   521 17E8:2D86   522 17E8:2D8B
   525 17E8:2DBD   526 17E8:2DDB   527 17E8:2DF2   528 17E8:2E09
   521 17E8:2E0B   531 17E8:2E13   532 17E8:2E18   533 17E8:2E1F
   534 17E8:2E25   535 17E8:2E3D   536 17E8:2E54   538 17E8:2E56
   539 17E8:2E70   532 17E8:2E8A   517 17E8:2E93   548 17E8:2EA4
   550 17E8:2EBC   551 17E8:2EE3   552 17E8:2EFF   553 17E8:2F0F
   554 17E8:2F19   548 17E8:2F54   559 17E8:2F6C
Line numbers for cncufom.obj(..\cncunpac\cncufom.cpp) segment CNCUFOM_TEXT

    23 1ADF:0000    25 1ADF:0008    29 1ADF:000D    41 1ADF:001D
    42 1ADF:0029    43 1ADF:0035    44 1ADF:0049    45 1ADF:005F
    48 1ADF:0064    50 1ADF:0080    49 1ADF:0094    51 1ADF:00A9
    52 1ADF:00BF    54 1ADF:00C6    55 1ADF:00DB    57 1ADF:00E2
    58 1ADF:00F7    60 1ADF:00FE    61 1ADF:0103    62 1ADF:010B
    63 1ADF:0112    64 1ADF:0128    66 1ADF:0137    67 1ADF:0149
    65 1ADF:014E    70 1ADF:0164    71 1ADF:0179    74 1ADF:017F
    75 1ADF:019D    76 1ADF:01B3    77 1ADF:01C7    78 1ADF:01D3
    80 1ADF:01DB    82 1ADF:01F0    91 1ADF:020D    92 1ADF:0217
    95 1ADF:0231    96 1ADF:024E    98 1ADF:0254   101 1ADF:02C0
   106 1ADF:02C3   108 1ADF:02F7   111 1ADF:02FA   112 1ADF:0307
   114 1ADF:031E   115 1ADF:0323   116 1ADF:0335   117 1ADF:035B
   118 1ADF:0366   114 1ADF:0368   121 1ADF:0371   123 1ADF:0377
   124 1ADF:0396   128 1ADF:03A9   129 1ADF:03BE   131 1ADF:03E7
   132 1ADF:03F2   134 1ADF:041C   135 1ADF:0427   136 1ADF:0434
   138 1ADF:043F   139 1ADF:0455   140 1ADF:0460   141 1ADF:0478
   145 1ADF:0486   146 1ADF:04A3   147 1ADF:04D0   149 1ADF:04D3
   150 1ADF:04E8   151 1ADF:04F4   152 1ADF:0500   153 1ADF:0502
   154 1ADF:0507   155 1ADF:050F   156 1ADF:051D   157 1ADF:0520
   158 1ADF:0541   160 1ADF:0562   161 1ADF:0576   162 1ADF:0589
   163 1ADF:059C   154 1ADF:059E   166 1ADF:05AC   167 1ADF:05B1
   169 1ADF:05B9   170 1ADF:05C1   172 1ADF:05E7   173 1ADF:061D
   174 1ADF:0626   175 1ADF:0634   176 1ADF:0640   169 1ADF:0642
   178 1ADF:0650   179 1ADF:0656   181 1ADF:066C   182 1ADF:0678
   183 1ADF:0688   184 1ADF:0698   185 1ADF:069A   186 1ADF:06A3
   188 1ADF:06B5   189 1ADF:06C9   182 1ADF:06CB   193 1ADF:06D7
   194 1ADF:06E3   195 1ADF:06F6   196 1ADF:070A   197 1ADF:0724
   199 1ADF:072F   200 1ADF:076E   201 1ADF:077C   204 1ADF:0793
   205 1ADF:079F   206 1ADF:07AB   209 1ADF:07C3   210 1ADF:07DA
   211 1ADF:07E8   213 1ADF:07FF   218 1ADF:080E   219 1ADF:082B
   221 1ADF:0880   223 1ADF:0883   225 1ADF:0892   226 1ADF:08A0
   227 1ADF:08B4   228 1ADF:08C4   229 1ADF:08D2   230 1ADF:08DE
   233 1ADF:08E0   234 1ADF:08EF   235 1ADF:0905   236 1ADF:0913
   237 1ADF:0930   238 1ADF:093E   240 1ADF:094A   241 1ADF:0956
   242 1ADF:0961   243 1ADF:0966   245 1ADF:0969   246 1ADF:0977
   247 1ADF:0986   249 1ADF:09AA   250 1ADF:09BE   251 1ADF:09CE
   255 1ADF:09DF   256 1ADF:09EC   257 1ADF:0A0E   258 1ADF:0A22
   259 1ADF:0A3E   262 1ADF:0A43   263 1ADF:0A52   264 1ADF:0A62
   265 1ADF:0A70   266 1ADF:0A8D   267 1ADF:0A9B   272 1ADF:0AAA
   273 1ADF:0AC7   276 1ADF:0AD8   277 1ADF:0AE8   278 1ADF:0AF6
   280 1ADF:0B0D   281 1ADF:0B36   282 1ADF:0B4A   284 1ADF:0B70
   286 1ADF:0B73   287 1ADF:0B85   288 1ADF:0BA1   293 1ADF:0BB1
   294 1ADF:0BC1   295 1ADF:0BEB   296 1ADF:0BFF   297 1ADF:0C2C
   299 1ADF:0C2F   303 1ADF:0C5B   305 1ADF:0CA9   306 1ADF:0CBD
   307 1ADF:0CE8   314 1ADF:0CFF   315 1ADF:0D1C   316 1ADF:0D2A
   318 1ADF:0D41   320 1ADF:0D96   323 1ADF:0D99   329 1ADF:0DA2
   330 1ADF:0DBF   332 1ADF:0DCF   333 1ADF:0DDD   335 1ADF:0DF4
   336 1ADF:0E1D   337 1ADF:0E31   340 1ADF:0E61   341 1ADF:0E7D
   342 1ADF:0E8F   347 1ADF:0E9D   348 1ADF:0EC6   349 1ADF:0EDA
   351 1ADF:0F42   352 1ADF:0F56   357 1ADF:0F63   358 1ADF:0F80
   360 1ADF:0FCE   362 1ADF:0FE5   363 1ADF:0FFB   365 1ADF:1002
   367 1ADF:1024   368 1ADF:1029   369 1ADF:103D   372 1ADF:103F
   373 1ADF:104B   374 1ADF:1077   375 1ADF:108B   376 1ADF:10AA
   377 1ADF:10B7   381 1ADF:10C5   382 1ADF:10E2   383 1ADF:10F2
   384 1ADF:1100   385 1ADF:1127   386 1ADF:1156   387 1ADF:1164
   389 1ADF:1167   392 1ADF:1175   394 1ADF:11C3   395 1ADF:11D7
   396 1ADF:1200   397 1ADF:1214   402 1ADF:1235   405 1ADF:123D
   408 1ADF:1277   409 1ADF:1299   411 1ADF:12B0   414 1ADF:12FD
   415 1ADF:1311   416 1ADF:1326   402 1ADF:1335   421 1ADF:1348
   422 1ADF:1356   425 1ADF:136A
Line numbers for cncufnum.obj(..\cncunpac\cncufnum.cpp) segment CNCUFNUM_TEXT

    23 1C1C:0000    25 1C1C:0008    26 1C1C:000D    27 1C1C:0012
    31 1C1C:0017    32 1C1C:0032    33 1C1C:0037    34 1C1C:0043
    35 1C1C:004E    37 1C1C:0050    39 1C1C:005E    40 1C1C:0072
    41 1C1C:007D    43 1C1C:0089    44 1C1C:0095    49 1C1C:00A4
    50 1C1C:00AA    51 1C1C:00BF    52 1C1C:00E6    53 1C1C:00F3
    55 1C1C:010A    59 1C1C:0121    60 1C1C:0124    61 1C1C:0144
    65 1C1C:0163    66 1C1C:0166    69 1C1C:017A    71 1C1C:01AE
    72 1C1C:01B8    73 1C1C:01C5    74 1C1C:01CF    76 1C1C:01DC
    77 1C1C:01E9    79 1C1C:01F5    82 1C1C:0209    45 1C1C:020E
    84 1C1C:0254    85 1C1C:027C    89 1C1C:0293    90 1C1C:02B3
    91 1C1C:02CD    92 1C1C:02D3    95 1C1C:02DF    96 1C1C:02F3
    98 1C1C:02F7    99 1C1C:030F   100 1C1C:031C   101 1C1C:0322
   102 1C1C:032C   103 1C1C:0342   105 1C1C:0344   106 1C1C:0350
   107 1C1C:0356   108 1C1C:0360   109 1C1C:0376   111 1C1C:0378
   112 1C1C:0384   113 1C1C:0391   115 1C1C:039B
Line numbers for cncufnm.obj(..\cncunpac\cncufnm.cpp) segment CNCUFNM_TEXT

    12 1C55:0016    18 1C55:001E    20 1C55:002B    21 1C55:0044
    23 1C55:0064    24 1C55:006F    25 1C55:007B    27 1C55:0086
    29 1C55:0092
Line numbers for cncuends.obj(..\cncunpac\cncuends.cpp) segment CNCUENDS_TEXT

    27 1C5E:00D9    29 1C5E:00E1    30 1C5E:00E9    38 1C5E:00F1
    39 1C5E:010C    41 1C5E:0114    43 1C5E:0121    44 1C5E:0135
    45 1C5E:0141    47 1C5E:0144    48 1C5E:0152    49 1C5E:0160
    50 1C5E:016E    52 1C5E:019F    55 1C5E:01AD    57 1C5E:01C1
    59 1C5E:01CC    60 1C5E:01DA    61 1C5E:01DF    62 1C5E:01EB
    63 1C5E:01F7    66 1C5E:026F    67 1C5E:027A    69 1C5E:028C
    71 1C5E:02A8    73 1C5E:02B4    74 1C5E:02C4    75 1C5E:02D5
    71 1C5E:02E8    77 1C5E:02FD    78 1C5E:030C    80 1C5E:0318
    81 1C5E:0325    82 1C5E:032A    83 1C5E:0336    84 1C5E:0342
    85 1C5E:034E    91 1C5E:036A    93 1C5E:038A    95 1C5E:039A
    96 1C5E:03A8    97 1C5E:03C7    98 1C5E:03CC    99 1C5E:03D1
   100 1C5E:0404   102 1C5E:0413   103 1C5E:041F   104 1C5E:0450
   105 1C5E:045F   107 1C5E:047B   108 1C5E:04C6   104 1C5E:04E0
   110 1C5E:04F2   113 1C5E:04F4   114 1C5E:04F9   116 1C5E:052C
   117 1C5E:0538   119 1C5E:0545   120 1C5E:0562   121 1C5E:0595
   123 1C5E:05D0   117 1C5E:05E3   125 1C5E:05FA   126 1C5E:05FF
   127 1C5E:0632   129 1C5E:063C   130 1C5E:064B   131 1C5E:0688
   127 1C5E:0695   133 1C5E:06A3   134 1C5E:06A8   135 1C5E:06DB
   136 1C5E:0715   138 1C5E:0758   140 1C5E:0768   141 1C5E:0773
   142 1C5E:0778   143 1C5E:0784   144 1C5E:078F   145 1C5E:07C9
   146 1C5E:07FA   147 1C5E:083B   148 1C5E:087A   149 1C5E:0899
   150 1C5E:08D2   151 1C5E:08DD   152 1C5E:08F6   153 1C5E:0904
   154 1C5E:0910   153 1C5E:0922   155 1C5E:0936   157 1C5E:0946
   158 1C5E:094B   157 1C5E:0969   160 1C5E:0972   161 1C5E:097E
   162 1C5E:098A   165 1C5E:098D   166 1C5E:0992   167 1C5E:099E
   169 1C5E:09AA   170 1C5E:09BA   172 1C5E:09CB   173 1C5E:09DC
   174 1C5E:09EC   167 1C5E:09F8   177 1C5E:0A0D   178 1C5E:0A1C
   179 1C5E:0A28   180 1C5E:0A2D   181 1C5E:0A60   182 1C5E:0A65
   183 1C5E:0A98   185 1C5E:0AD1   186 1C5E:0ADD   187 1C5E:0B0E
   189 1C5E:0B4E   190 1C5E:0B53   191 1C5E:0B86   192 1C5E:0B8B
   193 1C5E:0BBE   194 1C5E:0BF8   195 1C5E:0C3B   196 1C5E:0C54
   197 1C5E:0C62   198 1C5E:0C6E   197 1C5E:0C80   199 1C5E:0C94
   201 1C5E:0CA4   202 1C5E:0CA9   201 1C5E:0CC7   204 1C5E:0CD0
   205 1C5E:0CEC   206 1C5E:0CF7   207 1C5E:0D03   211 1C5E:0D06
   210 1C5E:0D0B   212 1C5E:0D25   215 1C5E:0D33   214 1C5E:0D38
   216 1C5E:0D69   219 1C5E:0D79   220 1C5E:0D86   223 1C5E:0D94
   224 1C5E:0D98   225 1C5E:0DC2   228 1C5E:0DEA   230 1C5E:0DEF
   234 1C5E:0E19   235 1C5E:0E24   236 1C5E:0E29   237 1C5E:0E35
   238 1C5E:0E40   239 1C5E:0E4C   240 1C5E:0E57   242 1C5E:0E59
   243 1C5E:0E64   244 1C5E:0E72   227 1C5E:0E7D   246 1C5E:0E8F
   247 1C5E:0EA1   248 1C5E:0ECB   250 1C5E:0EEE   251 1C5E:0EF9
   252 1C5E:0EFE   253 1C5E:0F09   254 1C5E:0F14   256 1C5E:0F16
   257 1C5E:0F1B   260 1C5E:0F37   261 1C5E:0F4A   263 1C5E:0F5A
   264 1C5E:0F7E   265 1C5E:0F89   266 1C5E:0F94   270 1C5E:0F97
   272 1C5E:0FBA   273 1C5E:0FCD   275 1C5E:0FF1   276 1C5E:0FFC
   277 1C5E:1007   278 1C5E:101A   281 1C5E:101C   283 1C5E:103E
   284 1C5E:1049   293 1C5E:1056   302 1C5E:1087   304 1C5E:1095
   305 1C5E:109A   306 1C5E:10A6   307 1C5E:10DA   311 1C5E:10E6
   313 1C5E:10F1   314 1C5E:10F6   315 1C5E:1100   317 1C5E:110D
   319 1C5E:112A   320 1C5E:1135   324 1C5E:113C   325 1C5E:114A
   326 1C5E:115E   330 1C5E:116C   331 1C5E:1177   335 1C5E:117B
   340 1C5E:117D   341 1C5E:118C   342 1C5E:119C   343 1C5E:11AB
   344 1C5E:11D8   342 1C5E:1223   349 1C5E:123C   350 1C5E:1254
   352 1C5E:1257   353 1C5E:1265   354 1C5E:128E   355 1C5E:12A7
   357 1C5E:12B9   358 1C5E:12CB   352 1C5E:12D8   362 1C5E:12F1
   364 1C5E:12FD   365 1C5E:1326   366 1C5E:1330   367 1C5E:1333
   369 1C5E:1338   371 1C5E:1345   372 1C5E:135E   374 1C5E:1381
   377 1C5E:1385   381 1C5E:138A   383 1C5E:139C   386 1C5E:13AB
   388 1C5E:13CC   389 1C5E:13D4   390 1C5E:13F3   393 1C5E:13F5
   395 1C5E:141E   396 1C5E:1424   400 1C5E:1457   407 1C5E:146F
   412 1C5E:1477   413 1C5E:14A1   414 1C5E:14BC   415 1C5E:14CF
   416 1C5E:14DA   420 1C5E:14DC   419 1C5E:14E9   421 1C5E:1503
   422 1C5E:1516   423 1C5E:1522   424 1C5E:1545   426 1C5E:1550
Line numbers for cncuasim.obj(..\cncunpac\cncuasim.cpp) segment CNCUASIM_TEXT

    30 1DB3:0004    32 1DB3:0006    36 1DB3:0015    40 1DB3:003F
    41 1DB3:004A    42 1DB3:0056    43 1DB3:0062    44 1DB3:006E
    45 1DB3:007A    46 1DB3:0085    47 1DB3:0090    48 1DB3:009C
    50 1DB3:009F    52 1DB3:00B9    53 1DB3:00BE    54 1DB3:00CA
    56 1DB3:00DA    57 1DB3:00DF    60 1DB3:00E2    61 1DB3:00EE
    68 1DB3:0166    69 1DB3:016B    70 1DB3:018A    71 1DB3:01A9
    74 1DB3:01B1    75 1DB3:01BE    77 1DB3:01C6    79 1DB3:022E
    81 1DB3:0235    82 1DB3:024C    84 1DB3:0253    34 1DB3:0258
    87 1DB3:0267    88 1DB3:0275    89 1DB3:027A    90 1DB3:0286
    94 1DB3:0289    96 1DB3:0291    97 1DB3:02AA    99 1DB3:02D4
   100 1DB3:02E8   101 1DB3:02EC
Line numbers for cncuana.obj(..\cncunpac\cncuana.cpp) segment CNCUANA_TEXT

    18 1DE2:0086    27 1DE2:008E    28 1DE2:009A    29 1DE2:00BA
    31 1DE2:00CA    32 1DE2:00D8    33 1DE2:00FF    34 1DE2:012E
    35 1DE2:013C    37 1DE2:013E    38 1DE2:0149    43 1DE2:0157
    45 1DE2:017E    46 1DE2:0189    48 1DE2:0193    50 1DE2:01A2
    51 1DE2:01B7    52 1DE2:01BE    51 1DE2:01DE    53 1DE2:01EF
    55 1DE2:01F4    58 1DE2:025B    59 1DE2:026B    62 1DE2:027A
    63 1DE2:028C    64 1DE2:0292    65 1DE2:02B9    66 1DE2:02EB
    67 1DE2:02FB    69 1DE2:032D    73 1DE2:033A    74 1DE2:034A
    75 1DE2:037B    76 1DE2:03A4    77 1DE2:03D3    78 1DE2:03E1
    80 1DE2:03E3    83 1DE2:03EF    84 1DE2:03FB    85 1DE2:0406
    86 1DE2:0411    53 1DE2:0413    90 1DE2:041E    92 1DE2:0426
    93 1DE2:042B    95 1DE2:0492    96 1DE2:04A2    97 1DE2:04A8
    98 1DE2:04CF    99 1DE2:0501   103 1DE2:0506   104 1DE2:0523
   105 1DE2:0528   106 1DE2:0534   107 1DE2:054B   108 1DE2:0555
   109 1DE2:0561   110 1DE2:0566   111 1DE2:059F   112 1DE2:05E1
   113 1DE2:0618   114 1DE2:0651   115 1DE2:065D   116 1DE2:0669
   117 1DE2:0675   118 1DE2:0688   119 1DE2:068F   120 1DE2:06C8
   121 1DE2:070A   122 1DE2:073A   123 1DE2:0773   124 1DE2:077B
   126 1DE2:07B9   127 1DE2:07DB   129 1DE2:07F2   130 1DE2:0806
   131 1DE2:0814   132 1DE2:0820   133 1DE2:082C   134 1DE2:083C
   135 1DE2:084B   136 1DE2:0850   137 1DE2:0889   138 1DE2:08CB
   139 1DE2:0904   141 1DE2:0936   142 1DE2:0942   123 1DE2:0944
   144 1DE2:0957   145 1DE2:0965   146 1DE2:0979    92 1DE2:0987
   152 1DE2:0992   153 1DE2:0998   154 1DE2:09AC   159 1DE2:09B8
   160 1DE2:09C7   161 1DE2:09E4   162 1DE2:09E9   163 1DE2:09F9
   164 1DE2:0A05   165 1DE2:0A1C   166 1DE2:0A26   167 1DE2:0A32
   168 1DE2:0A37   169 1DE2:0A70   170 1DE2:0AB2   171 1DE2:0AE9
   172 1DE2:0B22   173 1DE2:0B2A   175 1DE2:0B68   176 1DE2:0B8A
   178 1DE2:0BA1   179 1DE2:0BB5   180 1DE2:0BC3   181 1DE2:0BCF
   182 1DE2:0BDB   183 1DE2:0BEB   184 1DE2:0BFA   185 1DE2:0BFF
   186 1DE2:0C38   187 1DE2:0C7A   188 1DE2:0CB3   172 1DE2:0CE7
   192 1DE2:0CFA   193 1DE2:0D08   197 1DE2:0D1E   198 1DE2:0D27
   201 1DE2:0D54   202 1DE2:0D5F   203 1DE2:0D6B   204 1DE2:0D76
   205 1DE2:0D82   209 1DE2:0D8E   212 1DE2:0D96   213 1DE2:0DA9
   214 1DE2:0DCD   218 1DE2:0DDB   221 1DE2:0E03   222 1DE2:0E17
   224 1DE2:0E23
Line numbers for cnctszr.obj(..\cnctime\cnctszr.cpp) segment CNCTSZR_TEXT

     9 1EC4:0007    13 1EC4:000F    14 1EC4:0030    15 1EC4:004E
    16 1EC4:0086    17 1EC4:00BE    18 1EC4:00F6    19 1EC4:0113
    20 1EC4:0171    21 1EC4:0194    22 1EC4:0211    23 1EC4:0231
    24 1EC4:0270    25 1EC4:02B1    26 1EC4:030D    27 1EC4:032B
    28 1EC4:0349    29 1EC4:0367    30 1EC4:0388    31 1EC4:038A
    30 1EC4:03A9    32 1EC4:03AF    33 1EC4:03CD    34 1EC4:03D9
    35 1EC4:041B    36 1EC4:045E    37 1EC4:04A1    33 1EC4:050A
    40 1EC4:051B    41 1EC4:0539    42 1EC4:0546    44 1EC4:0554
    45 1EC4:056A    46 1EC4:0576    47 1EC4:05AB    45 1EC4:05E4
    49 1EC4:05F3    51 1EC4:05F5    52 1EC4:05FE    53 1EC4:061D
    51 1EC4:0641    55 1EC4:064E    56 1EC4:0688    57 1EC4:06A5
    58 1EC4:06C3    59 1EC4:06CA    58 1EC4:0714    61 1EC4:071F
Line numbers for cnctstp.obj(..\cnctime\cnctstp.cpp) segment CNCTSTP_TEXT

    25 1F36:0003    30 1F36:000B    31 1F36:0016    36 1F36:006D
    38 1F36:007B    39 1F36:0080    41 1F36:008C    43 1F36:00AA
    44 1F36:00B5    45 1F36:00C0    46 1F36:00CB    49 1F36:00D7
    52 1F36:00E3    53 1F36:00EE    54 1F36:00FA    55 1F36:0106
    56 1F36:0112    57 1F36:0124    58 1F36:0136    59 1F36:0148
    61 1F36:0157    62 1F36:0177    63 1F36:0187    64 1F36:0191
    67 1F36:01A5    68 1F36:01B0    69 1F36:01CC    63 1F36:01DC
    73 1F36:01E9    75 1F36:01EC    77 1F36:01FA    78 1F36:0205
    79 1F36:0211    81 1F36:0214    84 1F36:023F   108 1F36:024D
   109 1F36:025A   113 1F36:0269   115 1F36:0289   120 1F36:02BD
   121 1F36:02CD   123 1F36:02DB   124 1F36:02E7   125 1F36:02F2
   133 1F36:0306   134 1F36:0320   138 1F36:0350   139 1F36:035C
   140 1F36:0367   142 1F36:0377   143 1F36:0385   151 1F36:0392
   156 1F36:03DA   157 1F36:03E6   161 1F36:03F8   164 1F36:03FC
   167 1F36:0404   171 1F36:042D   172 1F36:043F   173 1F36:0451
   175 1F36:0499   176 1F36:049E   177 1F36:04A7   178 1F36:04C4
   179 1F36:04DE   176 1F36:04EF   181 1F36:0505   182 1F36:0511
   183 1F36:051D   186 1F36:0520   188 1F36:052F   190 1F36:053C
   191 1F36:056E   192 1F36:05AD   194 1F36:05D2   195 1F36:05FF
   188 1F36:061E   198 1F36:0637   200 1F36:063A   202 1F36:0654
   204 1F36:065D   205 1F36:0687   202 1F36:06A4   208 1F36:06BA
   210 1F36:06C6
Line numbers for cnctsm.obj(..\cnctime\cnctsm.cpp) segment CNCTSM_TEXT

    24 1FA2:000A    27 1FA2:0012    34 1FA2:005A    35 1FA2:0076
    36 1FA2:0082    37 1FA2:008E    38 1FA2:009A    39 1FA2:00A6
    40 1FA2:00B2    42 1FA2:00C1    43 1FA2:00CE    44 1FA2:00F3
    46 1FA2:0120    47 1FA2:013F    42 1FA2:014A    51 1FA2:0164
    52 1FA2:016F    53 1FA2:017A    54 1FA2:0185    56 1FA2:0191
Line numbers for cnctrpr.obj(..\cnctime\cnctrpr.cpp) segment CNCTRPR_TEXT

    24 1FBB:0005    26 1FBB:0007    27 1FBB:0008    28 1FBB:0009
    39 1FBB:000D    40 1FBB:0017    41 1FBB:002F    43 1FBB:0030
    44 1FBB:003A    45 1FBB:003C    47 1FBB:003D    48 1FBB:003E
    49 1FBB:0040    50 1FBB:0041    51 1FBB:0043    53 1FBB:0045
    54 1FBB:0046    55 1FBB:0048    56 1FBB:0049    57 1FBB:004B
    58 1FBB:004C    61 1FBB:004D
Line numbers for cnctres.obj(..\cnctime\cnctres.cpp) segment CNCTRES_TEXT

    20 1FC0:0000    22 1FC0:0008    23 1FC0:0015    24 1FC0:0021
    23 1FC0:0035    25 1FC0:004A    26 1FC0:005D    27 1FC0:0070
    28 1FC0:007C    29 1FC0:0093    32 1FC0:009F    35 1FC0:00AB
    36 1FC0:00B7    37 1FC0:00C3    38 1FC0:00D2    39 1FC0:00DE
    41 1FC0:00EA    42 1FC0:00F5    43 1FC0:0101    44 1FC0:0145
    49 1FC0:0151    50 1FC0:015C    51 1FC0:0176    52 1FC0:0181
    53 1FC0:018D    54 1FC0:0198    55 1FC0:01A3    56 1FC0:01B5
    58 1FC0:0214    55 1FC0:0236    60 1FC0:0253    61 1FC0:025A
    60 1FC0:0278    62 1FC0:0281    63 1FC0:029C    64 1FC0:02D9
    65 1FC0:02F9
Line numbers for cnctrc2.obj(..\cnctime\cnctrc2.cpp) segment CNCTRC2_TEXT

    17 1FEF:000D    20 1FEF:000F    21 1FEF:0010    23 1FEF:0011
    24 1FEF:001B    25 1FEF:001E    26 1FEF:001F    27 1FEF:0021
    28 1FEF:0023    29 1FEF:0025    30 1FEF:0027    31 1FEF:0032
    32 1FEF:0034    33 1FEF:003F    34 1FEF:0041    35 1FEF:004C
    36 1FEF:004D    38 1FEF:004E
Line numbers for cnctrc1.obj(..\cnctime\cnctrc1.cpp) segment CNCTRC1_TEXT

    18 1FF4:0001    21 1FF4:0003    22 1FF4:0004    24 1FF4:0005
    25 1FF4:000F    26 1FF4:0012    27 1FF4:0013    28 1FF4:0015
    29 1FF4:0017    30 1FF4:0019    31 1FF4:001B    32 1FF4:0026
    33 1FF4:0028    34 1FF4:0033    35 1FF4:0035    36 1FF4:0040
    37 1FF4:004C    38 1FF4:004D    40 1FF4:004E
Line numbers for cnctpoin.obj(..\cnctime\cnctpoin.cpp) segment CNCTPOIN_TEXT

    12 1FF9:0001    17 1FF9:0009    19 1FF9:0018    21 1FF9:0029
    22 1FF9:0034    24 1FF9:0043    26 1FF9:0054    27 1FF9:005E
    28 1FF9:0065    29 1FF9:006F    30 1FF9:00B5    31 1FF9:00E7
    32 1FF9:00FD    35 1FF9:010A    38 1FF9:0115
Line numbers for cnctmm.obj(..\cnctime\cnctmm.cpp) segment CNCTMM_TEXT

    22 200A:0009    28 200A:000B    31 200A:001B    33 200A:002D
    36 200A:0063    37 200A:006F    38 200A:007A    39 200A:008C
    40 200A:00AA    41 200A:00CE    44 200A:00D9    45 200A:00DD
    46 200A:0101    44 200A:010C    48 200A:011C    49 200A:0128
    50 200A:0134    53 200A:0137    54 200A:0143    55 200A:014F
    56 200A:015A    57 200A:0166    58 200A:0172    59 200A:017E
    64 200A:018D    66 200A:019B    67 200A:01A9    68 200A:01B5
    69 200A:01BA    71 200A:01BD    74 200A:01E9    75 200A:01F4
    76 200A:0201    77 200A:020D    81 200A:0215    89 200A:0279
    90 200A:0286    91 200A:0292    92 200A:029F    93 200A:02AA
    99 200A:02B1   100 200A:02C1   101 200A:02CC   103 200A:02D8
Line numbers for cnctmfun.obj(..\cnctime\cnctmfun.cpp) segment CNCTMFUN_TEXT

    16 2037:000B    28 2037:0013    29 2037:0022    32 2037:004D
    34 2037:005F    36 2037:006E    38 2037:007D    39 2037:0087
    40 2037:0094    42 2037:00A0    45 2037:00FA    46 2037:0106
    47 2037:0111    48 2037:011C    51 2037:011F    52 2037:012A
    53 2037:015D    54 2037:0190    56 2037:01EA    57 2037:01F4
    60 2037:024E    61 2037:025A    62 2037:0265    63 2037:0270
    65 2037:0273    66 2037:027E    67 2037:02B1    68 2037:02E4
    71 2037:033E    72 2037:0348    74 2037:0375    75 2037:0381
    76 2037:038C    77 2037:0397    80 2037:039A    81 2037:03A5
    82 2037:03D8    83 2037:040B    93 2037:0465    95 2037:0482
    97 2037:04AA    98 2037:04D2    99 2037:04FE   100 2037:0518
   101 2037:0542    93 2037:0566   104 2037:058B   106 2037:05A5
   108 2037:05B3   109 2037:05CA   110 2037:05E2   111 2037:05FD
   113 2037:0608   115 2037:0616   116 2037:0624   117 2037:0639
   119 2037:0646   120 2037:0654   104 2037:0660   122 2037:0683
   124 2037:0686   126 2037:0697   128 2037:06A6   130 2037:06B7
   131 2037:06C1   132 2037:06C8   133 2037:06D1   136 2037:06EE
   137 2037:0733   138 2037:0765   139 2037:077B   144 2037:0788
   146 2037:0793   152 2037:07D4   153 2037:07D8   155 2037:07E1
   156 2037:07E7   160 2037:07F5   162 2037:0804   163 2037:080F
   167 2037:081D   169 2037:082E   170 2037:083B   171 2037:0840
   172 2037:0862   173 2037:086D   177 2037:087B   178 2037:0892
   180 2037:0895   181 2037:08AA   182 2037:08B5   184 2037:08C0
   185 2037:08D7   186 2037:08E8   187 2037:08F3   188 2037:08F8
   190 2037:0912   194 2037:091D   196 2037:092A
Line numbers for cnctio.obj(..\cnctime\cnctio.cpp) segment CNCTIO_TEXT

    20 20C9:000E    22 20C9:0010    25 20C9:0058    26 20C9:0064
    27 20C9:0076    28 20C9:009A    29 20C9:00A5    31 20C9:00B1
Line numbers for cnctinfm.obj(..\cnctime\cnctinfm.cpp) segment CNCTINFM_TEXT

    16 20D4:0004    21 20D4:000C    24 20D4:0017    25 20D4:0022
    26 20D4:0034    29 20D4:00A0    31 20D4:00A6    33 20D4:00B9
    25 20D4:00CA    37 20D4:0100    38 20D4:010B    39 20D4:0116
    40 20D4:0122    41 20D4:0138    42 20D4:0147    44 20D4:014C
    45 20D4:0150    46 20D4:0156    48 20D4:0168    39 20D4:0178
    51 20D4:0185    54 20D4:019B    57 20D4:01B2    58 20D4:01BF
    59 20D4:01C4    60 20D4:01D1    62 20D4:01E8    63 20D4:01F7
    64 20D4:01FC    59 20D4:020B    66 20D4:0225    68 20D4:023A
    69 20D4:0247    55 20D4:025D    71 20D4:027E    72 20D4:0289
    73 20D4:0294    75 20D4:02AB    76 20D4:02BD    78 20D4:02D7
    79 20D4:02E9    81 20D4:02FF    83 20D4:0346    84 20D4:0352
    85 20D4:0380    89 20D4:038E    73 20D4:039A    92 20D4:03BA
    93 20D4:03DD    96 20D4:03E8    97 20D4:03F4   100 20D4:03FE
   101 20D4:040E   102 20D4:0420   104 20D4:044D   105 20D4:045F
   108 20D4:048B   109 20D4:0499   111 20D4:04AB   114 20D4:04D7
   115 20D4:04E5    97 20D4:04F7   119 20D4:0507   120 20D4:0527
   121 20D4:0534   122 20D4:0550   124 20D4:056E   131 20D4:06A0
   132 20D4:06AC   135 20D4:06C2   137 20D4:0715   139 20D4:075D
   140 20D4:0769   143 20D4:077F   145 20D4:07C7   146 20D4:07D3
   122 20D4:07E9   152 20D4:0808   153 20D4:0815   155 20D4:0825
   156 20D4:0833   158 20D4:084F   160 20D4:085C   161 20D4:0867
   162 20D4:0892   164 20D4:089F   165 20D4:08AA   166 20D4:08E7
   168 20D4:08F4   169 20D4:08FF   171 20D4:091B   172 20D4:0926
Line numbers for cnctcom1.obj(..\cnctime\cnctcom1.cpp) segment CNCTCOM1_TEXT

    19 2166:000A    21 2166:000C    23 2166:001B    24 2166:0027
    25 2166:0033    26 2166:003F    27 2166:004B    28 2166:0056
    29 2166:0061    30 2166:0066    34 2166:0083    35 2166:00AC
    43 2166:00BF    44 2166:00CB    45 2166:00D0    48 2166:00DE
    49 2166:00EE    50 2166:0105    51 2166:0112    53 2166:012B
    54 2166:0149    56 2166:0156    57 2166:017F    58 2166:018D
    59 2166:0199    62 2166:01A3    63 2166:01A8    64 2166:01B8
    65 2166:01DE    66 2166:01E9    67 2166:01F4    69 2166:01F6
    70 2166:021F    71 2166:022D    72 2166:0239    81 2166:0243
Line numbers for cnctcm.obj(..\cnctime\cnctcm.cpp) segment CNCTCM_TEXT

    25 218A:0006    29 218A:000E    31 218A:001A    33 218A:0029
    34 218A:0034    36 218A:0043    37 218A:004F    39 218A:0070
    40 218A:007E    41 218A:0083    43 218A:0093    44 218A:00A2
    46 218A:00B2    47 218A:00C0    49 218A:00CB    51 218A:00D7
    53 218A:00E5    54 218A:00F5    55 218A:0101    56 218A:010C
    57 218A:0118    58 218A:0124    61 218A:0127    62 218A:0132
    63 218A:013D    64 218A:0148    68 218A:0156    70 218A:0166
    72 218A:0174    73 218A:017F    76 218A:019C    77 218A:01A7
    78 218A:01B3    83 218A:01C1    84 218A:01CD    88 218A:01E8
    90 218A:01F6    91 218A:0204    92 218A:0210    93 218A:021B
    94 218A:0227    95 218A:0233    98 218A:0236    99 218A:0241
   100 218A:024C   101 218A:0257   106 218A:0265   108 218A:0272
   117 218A:0280   118 218A:028C   120 218A:0297   124 218A:02A5
   125 218A:02C1   126 218A:02CD   127 218A:02D8   128 218A:02E4
   129 218A:02EF   131 218A:02F2   133 218A:030D   134 218A:0318
   135 218A:0322   136 218A:032D   137 218A:0338   138 218A:0344
   141 218A:0347   142 218A:0352   143 218A:035D   144 218A:036D
   145 218A:0376   144 218A:0392   146 218A:03A6   147 218A:03B1
   149 218A:03B3   150 218A:03BF   151 218A:03CD   156 218A:03D9
Line numbers for cnctbgn.obj(..\cnctime\cnctbgn.cpp) segment CNCTBGN_TEXT

    25 21C7:000D    30 21C7:000F    32 21C7:002A    33 21C7:0035
    34 21C7:0041    37 21C7:0044    38 21C7:005C    42 21C7:007A
    44 21C7:0088    45 21C7:00A0    46 21C7:00AC    48 21C7:00B8
    50 21C7:00BB    52 21C7:00CB    54 21C7:00D7    55 21C7:00EF
    56 21C7:00FA    57 21C7:0106    58 21C7:0126    59 21C7:0131
    60 21C7:013C    61 21C7:0147    62 21C7:0153    65 21C7:0156
    66 21C7:0168    71 21C7:0170    73 21C7:0180    75 21C7:0190
    76 21C7:019E    77 21C7:01AA    78 21C7:01B5    79 21C7:01C1
    80 21C7:01CC    81 21C7:01D7    88 21C7:01E5    89 21C7:01F3
    90 21C7:01FF    91 21C7:020A    92 21C7:0216    93 21C7:0221
    94 21C7:022C    96 21C7:0238    97 21C7:0244    98 21C7:0250
   100 21C7:0253   101 21C7:025E   102 21C7:0269   103 21C7:0275
   104 21C7:0281   105 21C7:0299   106 21C7:02AB   111 21C7:02D2
   113 21C7:02E0   115 21C7:02F0   116 21C7:02F5   117 21C7:0301
   122 21C7:030F   124 21C7:031D   125 21C7:032D   126 21C7:0332
   127 21C7:033E   132 21C7:034C   133 21C7:035C   134 21C7:036C
   135 21C7:0377   136 21C7:0389   137 21C7:03AD   138 21C7:03B9
   139 21C7:03C4   140 21C7:03CF   141 21C7:03DB   145 21C7:03F3
   146 21C7:03F6   156 21C7:03F8   157 21C7:0418   158 21C7:0423
   159 21C7:042E   160 21C7:0440   162 21C7:045B   164 21C7:0490
   165 21C7:04B4   166 21C7:04D2   167 21C7:04FF   168 21C7:050B
   169 21C7:0516
Line numbers for zapic.obj(..\cncserr\zapic.cpp) segment ZAPIC_TEXT

    20 2218:0009    26 2218:0011    28 2218:0018    29 2218:0031
    31 2218:0037    33 2218:007A    35 2218:0081    33 2218:00DD
    37 2218:00E6    39 2218:0107    40 2218:0161    44 2218:01AB
    45 2218:022D    47 2218:02B3    49 2218:02D2    50 2218:0316
Line numbers for ob_out.obj(..\cncserr\ob_out.cpp) segment OB_OUT_TEXT

    14 2249:0013    18 2249:001B    20 2249:002D    21 2249:003B
    22 2249:0063    23 2249:007B    24 2249:00A3    25 2249:00B3
    26 2249:00C3    27 2249:00D3    28 2249:00FB    29 2249:0109
    30 2249:0115    31 2249:013D    32 2249:014B    33 2249:0155
    34 2249:0163    35 2249:016D    36 2249:017B    37 2249:0185
    38 2249:0193    39 2249:019D    40 2249:01AB    41 2249:01B5
    42 2249:01DD    44 2249:01E9    45 2249:01FA    42 2249:0209
    47 2249:021B    49 2249:0227    50 2249:022D    52 2249:0238
    53 2249:0249    47 2249:0258    56 2249:026A    57 2249:0292
    58 2249:029C    60 2249:02A9    62 2249:02B4    63 2249:02D5
    65 2249:02DE    60 2249:02E5    67 2249:02F1    68 2249:02F5
    70 2249:0300    72 2249:0308    73 2249:031E    58 2249:032B
    75 2249:034B
Line numbers for ob_kon2.obj(..\cncserr\ob_kon2.cpp) segment OB_KON2_TEXT

    18 227D:0041    26 227D:004A    27 227D:0073    29 227D:008F
    30 227D:009D    32 227D:00B9    34 227D:00CB    35 227D:00F3
    36 227D:0101    37 227D:0115    38 227D:0121    39 227D:012F
    40 227D:0143    41 227D:014F    42 227D:015D    43 227D:0171
    44 227D:017D    45 227D:018B    46 227D:019F    47 227D:01AB
    48 227D:01D3    49 227D:01E1    50 227D:01F5    51 227D:0201
    52 227D:0229    53 227D:0239    54 227D:0249    55 227D:0259
    56 227D:0269    57 227D:0279    58 227D:02A1    60 227D:02AD
    61 227D:02B3    62 227D:02BC    63 227D:02CD    64 227D:02F5
    58 227D:0304    67 227D:0310    69 227D:0320    70 227D:0325
    72 227D:032A    74 227D:033A    75 227D:033F    77 227D:0344
    78 227D:036C    82 227D:037E    83 227D:039A    84 227D:03AA
    86 227D:03B1    87 227D:03C1    89 227D:03C8    90 227D:03CD
    91 227D:03DE    92 227D:03ED    96 227D:03FE    98 227D:040C
   100 227D:0425   101 227D:044D   102 227D:045A   106 227D:046B
   107 227D:0493   108 227D:04A0    96 227D:04B7   111 227D:04C5
   123 227D:04C8   125 227D:04D6   127 227D:04EF   133 227D:050E
   134 227D:0536   135 227D:0543   137 227D:0551   139 227D:0557
   140 227D:056C   123 227D:0588   143 227D:0596   150 227D:0599
   152 227D:05AE   153 227D:05C0   154 227D:05CE   156 227D:05D4
   157 227D:05E9   150 227D:0605   160 227D:0616   161 227D:0627
   162 227D:0641   163 227D:0652   164 227D:065C   184 227D:065F
   185 227D:0670   186 227D:067E   187 227D:068F   188 227D:0699
   189 227D:06AA   190 227D:06C4   192 227D:06C6    80 227D:06C8
    78 227D:06E3   196 227D:06F4   197 227D:0700
Line numbers for ob_kon.obj(..\cncserr\ob_kon.cpp) segment OB_KON_TEXT

    18 22F2:004A    29 22F2:0053    30 22F2:007C    32 22F2:0098
    33 22F2:00C0    34 22F2:00CE    36 22F2:00EA    38 22F2:00FC
    39 22F2:0124    40 22F2:0132    41 22F2:0146    42 22F2:0152
    43 22F2:0160    44 22F2:0174    45 22F2:0180    46 22F2:018E
    47 22F2:01A2    48 22F2:01AE    49 22F2:01BC    50 22F2:01D0
    51 22F2:01DC    52 22F2:0204    53 22F2:0212    54 22F2:0226
    55 22F2:0232    56 22F2:025A    57 22F2:026A    58 22F2:027A
    59 22F2:028A    60 22F2:029A    61 22F2:02AA    62 22F2:02D2
    64 22F2:02DE    65 22F2:02E4    66 22F2:02ED    67 22F2:02FE
    62 22F2:030D    70 22F2:0319    72 22F2:0329    73 22F2:032E
    75 22F2:0333    77 22F2:0343    78 22F2:0348    80 22F2:034D
    81 22F2:0375    85 22F2:0387    86 22F2:03A3    87 22F2:03B3
    89 22F2:03BA    90 22F2:03CA    92 22F2:03D1    93 22F2:03D6
    94 22F2:03E7    95 22F2:03F6    96 22F2:041E   104 22F2:042F
   106 22F2:043D   108 22F2:0456   109 22F2:047E   110 22F2:048B
   114 22F2:049C   115 22F2:04C4   116 22F2:04D1   104 22F2:04E8
   119 22F2:04F6   129 22F2:04F9   131 22F2:0507   133 22F2:0520
   139 22F2:053F   140 22F2:0567   141 22F2:0574   143 22F2:0582
   145 22F2:0588   146 22F2:059D   129 22F2:05B9   149 22F2:05C7
   151 22F2:05CA   153 22F2:05DF   154 22F2:05F1   155 22F2:05FF
   157 22F2:0605   158 22F2:061A   151 22F2:0636   161 22F2:0646
   162 22F2:0657   163 22F2:0671   165 22F2:0685   166 22F2:069A
   167 22F2:06B6   169 22F2:06CF   175 22F2:06EE   176 22F2:0716
   177 22F2:0723   163 22F2:0731   180 22F2:0742   184 22F2:0745
   186 22F2:075A   187 22F2:076C   188 22F2:077A   190 22F2:0780
   191 22F2:0795   184 22F2:07B1   194 22F2:07C2   195 22F2:07D3
   196 22F2:07ED   197 22F2:07FE   198 22F2:0808   200 22F2:080B
   202 22F2:0820   203 22F2:0832   204 22F2:0840   205 22F2:0855
   200 22F2:0871   207 22F2:0881   208 22F2:0894   209 22F2:08A5
   210 22F2:08B4   212 22F2:08C9   213 22F2:08DB   214 22F2:08E9
   216 22F2:08EF   217 22F2:0904   210 22F2:0920   220 22F2:0930
   221 22F2:0941   222 22F2:095B   225 22F2:095E   227 22F2:096C
   229 22F2:0985   235 22F2:09A4   236 22F2:09CC   237 22F2:09D9
   239 22F2:09E7   240 22F2:09FC   225 22F2:0A18   242 22F2:0A26
   244 22F2:0A3B   245 22F2:0A4D   246 22F2:0A5B   248 22F2:0A61
   249 22F2:0A76   242 22F2:0A92   252 22F2:0AA2   253 22F2:0AB3
   254 22F2:0ACD   270 22F2:0AD0   271 22F2:0AE1   272 22F2:0AEF
   273 22F2:0B00   274 22F2:0B0A   275 22F2:0B1B   276 22F2:0B35
   278 22F2:0B38   279 22F2:0B49   280 22F2:0B57   281 22F2:0B68
   282 22F2:0B72   283 22F2:0B83   284 22F2:0B9D   286 22F2:0BA0
   287 22F2:0BB1   288 22F2:0BBF   289 22F2:0BD0   290 22F2:0BDA
   291 22F2:0BE8   292 22F2:0BF9   293 22F2:0C0B   295 22F2:0C0D
    83 22F2:0C0F    81 22F2:0C2A   299 22F2:0C3B   300 22F2:0C47
   303 22F2:0C9D   305 22F2:0C9F   306 22F2:0CC7   307 22F2:0CD7
   308 22F2:0CFF   309 22F2:0D0F
Line numbers for ob_in.obj(..\cncserr\ob_in.cpp) segment OB_IN_TEXT

    17 23C3:000B    21 23C3:0013    23 23C3:0025    24 23C3:0033
    25 23C3:005B    26 23C3:0073    27 23C3:009B    28 23C3:00AB
    29 23C3:00BB    30 23C3:00CB    31 23C3:00F3    32 23C3:0101
    33 23C3:010D    34 23C3:0135    35 23C3:0143    36 23C3:014D
    37 23C3:015B    38 23C3:0165    39 23C3:0173    40 23C3:017D
    41 23C3:018B    42 23C3:0195    43 23C3:01A3    44 23C3:01AD
    45 23C3:01D5    47 23C3:01E1    48 23C3:01F2    45 23C3:0201
    50 23C3:0213    52 23C3:021F    53 23C3:0225    55 23C3:0230
    56 23C3:0241    50 23C3:0250    59 23C3:0262    60 23C3:028A
    61 23C3:0294    63 23C3:02A1    65 23C3:02AC    66 23C3:02CD
    68 23C3:02D6    63 23C3:02DD    70 23C3:02E9    71 23C3:02ED
    73 23C3:02F8    75 23C3:0300    76 23C3:0316    61 23C3:0323
    78 23C3:0343
Line numbers for mistake.obj(..\cncserr\mistake.cpp) segment MISTAKE_TEXT

    36 23F7:00A7    47 23F7:00B0    49 23F7:00C0    50 23F7:00CE
    51 23F7:00F6    52 23F7:010D    53 23F7:0119    54 23F7:0141
    55 23F7:0151    56 23F7:017A    58 23F7:01A3    59 23F7:01BA
    60 23F7:01D1    61 23F7:01EF    64 23F7:01F2    67 23F7:01F6
    69 23F7:020A    70 23F7:021C    71 23F7:0238    72 23F7:024F
    73 23F7:0266    75 23F7:0274    76 23F7:0280    77 23F7:02A9
    79 23F7:02D2    80 23F7:02E9    81 23F7:0300    82 23F7:031E
    85 23F7:0321    88 23F7:0325    90 23F7:0339    91 23F7:034B
    92 23F7:0367    93 23F7:037E    94 23F7:0395    96 23F7:03A3
    97 23F7:03AF    98 23F7:03D8   100 23F7:0401   101 23F7:0418
   102 23F7:042F   103 23F7:044D   106 23F7:0450   109 23F7:0454
   111 23F7:0468   112 23F7:047A   113 23F7:0496   114 23F7:04AD
   115 23F7:04C4   117 23F7:04D2   118 23F7:04DE   119 23F7:0507
   121 23F7:0530   122 23F7:0547   123 23F7:055E   124 23F7:057C
   127 23F7:057F   130 23F7:0583   132 23F7:0597   133 23F7:05A9
   134 23F7:05C5   135 23F7:05DC   136 23F7:05F3   138 23F7:0601
   140 23F7:060D   142 23F7:061D   143 23F7:0646   145 23F7:0673
   146 23F7:068A   147 23F7:06A1   148 23F7:06BF   153 23F7:06C2
   154 23F7:06D3   156 23F7:06E0   158 23F7:0703   159 23F7:0713
   160 23F7:072A   161 23F7:0741   162 23F7:075D   163 23F7:076B
   164 23F7:0777   170 23F7:078C   171 23F7:07A5   154 23F7:07BE
   151 23F7:07D5   177 23F7:07EF   179 23F7:07FB   181 23F7:080B
   182 23F7:081F   184 23F7:0835   186 23F7:0855   187 23F7:086C
   188 23F7:0883   189 23F7:089B   193 23F7:08AC   194 23F7:08C1
   197 23F7:08D6   199 23F7:08F6   200 23F7:090D   201 23F7:0924
   202 23F7:093C   206 23F7:094D   207 23F7:0962   210 23F7:0977
   212 23F7:0997   213 23F7:09AE   214 23F7:09C5   215 23F7:09DD
   219 23F7:09EE   220 23F7:0A03   223 23F7:0A18   225 23F7:0A34
   226 23F7:0A4B   227 23F7:0A62   181 23F7:0A7A   231 23F7:0A92
   233 23F7:0AA2   234 23F7:0ACA   242 23F7:0AF3   243 23F7:0B1C
   246 23F7:0B45   247 23F7:0B5C   248 23F7:0B73   252 23F7:0B8C
   254 23F7:0BAC   256 23F7:0BC4   259 23F7:0BFA   263 23F7:0C05
   264 23F7:0C16   266 23F7:0C2B   267 23F7:0C42   268 23F7:0C59
   269 23F7:0C75   270 23F7:0C83   261 23F7:0C86   273 23F7:0CA0
   285 23F7:0CA3   286 23F7:0CBA   287 23F7:0CD1   293 23F7:0D02
   294 23F7:0D19   298 23F7:0D37   299 23F7:0D43   301 23F7:0D4F
   303 23F7:0D5F   304 23F7:0D88   306 23F7:0DB5   307 23F7:0DCC
   308 23F7:0DE3   309 23F7:0E01   314 23F7:0E04   315 23F7:0E15
   317 23F7:0E1F   319 23F7:0E2F   321 23F7:0E4C   322 23F7:0E63
   323 23F7:0E7A   324 23F7:0E96   315 23F7:0EA4   312 23F7:0EB4
   329 23F7:0ECE   331 23F7:0EDA   333 23F7:0EEA   334 23F7:0F13
   337 23F7:0F40   338 23F7:0F57   339 23F7:0F6E   340 23F7:0F8C
   345 23F7:0F8E   346 23F7:0FA5   347 23F7:0FBC   348 23F7:0FD8
   343 23F7:0FE6   351 23F7:100B   353 23F7:1017   355 23F7:1027
   356 23F7:1050   359 23F7:1079   360 23F7:1090   361 23F7:10A7
   362 23F7:10C5   365 23F7:10C8   367 23F7:10D0   369 23F7:10D8
   371 23F7:10F5   374 23F7:1103   375 23F7:1114   377 23F7:1126
   378 23F7:113D   379 23F7:1154   380 23F7:1170   381 23F7:117E
   372 23F7:1180   367 23F7:119A   365 23F7:11A5   388 23F7:11B0
   391 23F7:11BC   392 23F7:11C0   394 23F7:11C8   395 23F7:11CE
   396 23F7:11E0   397 23F7:11F1   398 23F7:11FE
Line numbers for glav.obj(..\cncserr\glav.cpp) segment GLAV_TEXT

    26 2517:0033    28 2517:003B    39 2517:0053    40 2517:0055
    42 2517:0065    43 2517:0073    44 2517:0076    45 2517:0084
    46 2517:0087    47 2517:0095    48 2517:0098    49 2517:00A6
    50 2517:00A9    51 2517:00B7    52 2517:00BA    53 2517:00D6
    54 2517:00D9    55 2517:00E7    56 2517:00EA    57 2517:00F8
    58 2517:00FB    59 2517:0109    60 2517:010C    61 2517:011A
    62 2517:011D    63 2517:012B    64 2517:012E    65 2517:013C
    66 2517:013F    67 2517:014D    68 2517:0150    69 2517:015E
    70 2517:0161    71 2517:016F    72 2517:0172    73 2517:0180
    74 2517:0183    75 2517:0191    76 2517:0194    77 2517:01A2
    78 2517:01A5    79 2517:01B3    80 2517:01B6    81 2517:01DB
    83 2517:01DD    85 2517:01E2    87 2517:01EC    89 2517:01FA
    90 2517:0208    91 2517:0230    85 2517:0253    97 2517:0260
    98 2517:0288   100 2517:028F   101 2517:02CD    98 2517:02D7
   105 2517:0313   106 2517:033B   108 2517:0345   110 2517:0353
   111 2517:0361   106 2517:0384   114 2517:0391   116 2517:0398
   117 2517:03D6   114 2517:03E0   120 2517:041C   121 2517:042A
   122 2517:0452   123 2517:045C   124 2517:046A   125 2517:0474
   126 2517:0482   127 2517:048C   128 2517:049A   129 2517:04A4
   130 2517:04CC   132 2517:04DC   133 2517:04F6   134 2517:0539
   136 2517:055A   137 2517:05BD   138 2517:05CB   139 2517:05F9
   140 2517:0607   141 2517:0633   142 2517:0668   144 2517:0678
   145 2517:0685   142 2517:068F   147 2517:06A0   148 2517:06D4
   149 2517:06E0   150 2517:06E5   152 2517:06F5   153 2517:0702
   150 2517:070C   155 2517:071D   158 2517:071F   160 2517:0724
   161 2517:0735   158 2517:073F   163 2517:0748   165 2517:074D
   166 2517:075E   163 2517:0768   169 2517:0771   170 2517:077F
   171 2517:078D   172 2517:079B   174 2517:07A7   175 2517:07BC
   177 2517:07CC   178 2517:07D9   175 2517:07E3   180 2517:07F4
   181 2517:0806   183 2517:0816   184 2517:0823   181 2517:082D
   186 2517:083E   189 2517:0840   191 2517:0845   193 2517:084A
   194 2517:085E   191 2517:0868   189 2517:0871   197 2517:087A
   199 2517:087F   201 2517:0884   202 2517:0898   199 2517:08A2
   197 2517:08AB   207 2517:08B4   208 2517:08C2   209 2517:08EA
   210 2517:08F4   211 2517:091C   212 2517:093A   214 2517:0947
   216 2517:095D   218 2517:0962   219 2517:0973   216 2517:097D
   221 2517:0986   224 2517:0988   226 2517:098D   227 2517:099E
   224 2517:09A8   230 2517:09B1   233 2517:09B3   234 2517:09C1
   237 2517:09D7   239 2517:09E6   240 2517:09F4   241 2517:0A1C
   242 2517:0A26   243 2517:0A4E   245 2517:0A85   247 2517:0A8A
   248 2517:0A9B   245 2517:0AA5   250 2517:0AAE   253 2517:0AB1
   254 2517:0AC0   256 2517:0B66   257 2517:0BCF   258 2517:0BDD
   261 2517:0BFA   263 2517:0C09   264 2517:0C17   265 2517:0C3F
   266 2517:0C4A   267 2517:0C72   269 2517:0CA9   271 2517:0CAE
   272 2517:0CBF   269 2517:0CC9   274 2517:0CD2   277 2517:0CD5
   278 2517:0CE4   280 2517:0D8A   281 2517:0DF3   282 2517:0E01
   284 2517:0E1E   285 2517:0E2C   286 2517:0E54   287 2517:0E5F
   288 2517:0E87   290 2517:0EBB   292 2517:0EC0   293 2517:0ED1
   290 2517:0EDB   295 2517:0EE4   298 2517:0EE7   299 2517:0EF6
   301 2517:0F9C   302 2517:1005   303 2517:1013   308 2517:1030
   309 2517:103E   310 2517:1066   311 2517:1070   312 2517:1098
   314 2517:10A5   315 2517:10BE   316 2517:10CC   317 2517:10D4
   318 2517:10E0   319 2517:10EE   323 2517:10F5   324 2517:1103
   325 2517:110B   327 2517:1117   329 2517:1126   330 2517:1134
   331 2517:115C   332 2517:1166   333 2517:118E   335 2517:119B
   336 2517:11B4   337 2517:11C2   338 2517:11CA   339 2517:11D6
   340 2517:11E4   344 2517:11EB   345 2517:11F9   346 2517:1201
   350 2517:120D   351 2517:1235   353 2517:126F   354 2517:1289
   355 2517:129C   357 2517:12A3   358 2517:12B1   359 2517:12BB
   360 2517:12C9   364 2517:12D0   370 2517:12D8   372 2517:12F4
   373 2517:1302   376 2517:130E   378 2517:134A   379 2517:1364
   380 2517:1373   381 2517:1380   382 2517:1391   384 2517:1398
   385 2517:13A6   386 2517:13B0   391 2517:13B8   392 2517:13C6
   394 2517:13D3   395 2517:13E6   397 2517:13ED   398 2517:13FB
   399 2517:1405   404 2517:140D   405 2517:141B   408 2517:1428
   410 2517:1446   411 2517:1460   412 2517:146F   413 2517:147C
   414 2517:1489   415 2517:1496   416 2517:14A9   418 2517:14B0
   419 2517:14BE   420 2517:14C8   425 2517:14D0   426 2517:14DE
   428 2517:14EB   429 2517:14FE   431 2517:1505   432 2517:1513
   433 2517:151D   438 2517:1525   439 2517:1533   441 2517:1540
   442 2517:1553   444 2517:155A   445 2517:1568   446 2517:1572
   451 2517:157A   452 2517:1588   455 2517:1595   456 2517:15BD
   457 2517:15CB   458 2517:15ED   459 2517:15F7
Line numbers for diag.obj(..\cncserr\diag.cpp) segment DIAG_TEXT

    23 2676:0054    28 2676:005C    30 2676:006B    32 2676:007B
    33 2676:0089    34 2676:00B1    36 2676:00BD    38 2676:00CA
    39 2676:00D2    40 2676:00EB    41 2676:00F3    42 2676:010C
    43 2676:0114    45 2676:012D    47 2676:013C    48 2676:0144
    49 2676:015D    50 2676:0165    51 2676:017E    52 2676:0186
    53 2676:019F    54 2676:01A7    55 2676:01C3    56 2676:01CB
    57 2676:01E7    58 2676:01EF    61 2676:020B    63 2676:021B
    64 2676:0229    65 2676:0251    67 2676:025D    68 2676:0285
    69 2676:028A    70 2676:028F    72 2676:02AE    74 2676:02CE
    79 2676:02D2    80 2676:02E2    83 2676:02E5    85 2676:0304
    87 2676:0324    92 2676:0328    93 2676:0338    96 2676:033B
    98 2676:035C   100 2676:037C   102 2676:039C   107 2676:03A0
   113 2676:03A4   115 2676:03C4   120 2676:03C8   121 2676:03D8
   125 2676:03DB   127 2676:03FB   132 2676:03FF   133 2676:040F
   135 2676:0412   137 2676:0432   138 2676:0442   140 2676:0445
   142 2676:0465   143 2676:0475   145 2676:0478   147 2676:0498
   148 2676:04A8   150 2676:04AB   152 2676:04EB   153 2676:04FB
   155 2676:04FE   157 2676:051E   158 2676:052E   160 2676:0531
   162 2676:0551   163 2676:0561   165 2676:0564   167 2676:0584
   168 2676:0590   170 2676:0593   172 2676:05B3   177 2676:05B7
   178 2676:05C7   180 2676:05CA   182 2676:05EA   183 2676:05FA
   185 2676:05FD   187 2676:061D   188 2676:062D   190 2676:0630
   192 2676:0650   193 2676:0660   195 2676:0663   197 2676:0683
   202 2676:0687   203 2676:0697   205 2676:069A   207 2676:06BA
   212 2676:06BE   213 2676:06CE   215 2676:06D1   217 2676:06F1
   222 2676:06F5   223 2676:0705   225 2676:0708   227 2676:073E
   228 2676:074E   230 2676:0751   232 2676:0771   237 2676:0775
   238 2676:0785   240 2676:0788   242 2676:07A8   247 2676:07AC
   248 2676:07BC   250 2676:07BF   252 2676:07DF   253 2676:07EF
   255 2676:07F2   257 2676:0812   258 2676:0822   260 2676:0825
   263 2676:0870   264 2676:0880   266 2676:0883   268 2676:0892
   269 2676:089C   270 2676:08B0   272 2676:08CD   273 2676:08DD
   274 2676:08E0   268 2676:08E2   276 2676:08F0   277 2676:08FA
   278 2676:090E   280 2676:092B   276 2676:0930   284 2676:093E
   287 2676:0941   289 2676:0950   290 2676:095A   291 2676:096E
   293 2676:098B   294 2676:099B   295 2676:099E   289 2676:09A0
   297 2676:09AE   298 2676:09B8   299 2676:09CC   301 2676:09E9
   297 2676:09ED   305 2676:09FB   308 2676:09FD   309 2676:0A0D
   314 2676:0A1D   315 2676:0A2B   316 2676:0A53   318 2676:0A5F
   319 2676:0A87   321 2676:0A99   323 2676:0ABD   324 2676:0AC8
   325 2676:0AD6   326 2676:0AEC   327 2676:0AF6   329 2676:0B18
   330 2676:0B2E   331 2676:0B58   332 2676:0B6E   338 2676:0B78
   339 2676:0B8E   319 2676:0BB8   343 2676:0BC6   345 2676:0BCD
   347 2676:0BD5   348 2676:0BE1   349 2676:0BF7   350 2676:0C1F
   351 2676:0C2B   352 2676:0C31   353 2676:0C34   355 2676:0C3A
   356 2676:0C50   357 2676:0C62   361 2676:0C69   362 2676:0C7F
   364 2676:0C8B   366 2676:0C9C   368 2676:0CA1   369 2676:0CA3
   371 2676:0CA9   372 2676:0CAF   373 2676:0CB8   375 2676:0CC4
   376 2676:0CC5   378 2676:0CCE   379 2676:0CCF   381 2676:0CDA
   382 2676:0CF0   383 2676:0CFC   384 2676:0D24   386 2676:0D2A
   387 2676:0D40   391 2676:0D49   393 2676:0D55   394 2676:0D6B
   398 2676:0D74   399 2676:0D8A   402 2676:0D99
Line numbers for avtoyp.obj(..\cncserr\avtoyp.cpp) segment AVTOYP_TEXT

    28 274F:0035    41 274F:003E    43 274F:004E    45 274F:0055
    46 274F:0067    48 274F:006D    50 274F:007F    52 274F:00C9
    55 274F:0117    56 274F:0132    57 274F:0138    58 274F:013E
    59 274F:0161    63 274F:0187    65 274F:018E    69 274F:0197
    61 274F:019B    72 274F:01BD    73 274F:01DF    78 274F:01E1
    80 274F:01E8    81 274F:01FB    83 274F:0202    84 274F:020F
    89 274F:021E    76 274F:0228    94 274F:024A    95 274F:0269
    97 274F:0270    98 274F:027D   101 274F:028A   103 274F:02B6
   105 274F:02BC   109 274F:02C8   111 274F:02F7   112 274F:031F
   113 274F:0339   114 274F:0343   115 274F:036B   116 274F:0393
   117 274F:03B5   118 274F:03DA   119 274F:03F4   120 274F:041C
   122 274F:0422   126 274F:042F   128 274F:0452   130 274F:0459
   131 274F:0476   132 274F:049E   128 274F:04A8   134 274F:04B8
   136 274F:04C1   138 274F:04C7   142 274F:04EB   144 274F:052A
   145 274F:0533   147 274F:0550   148 274F:056A   149 274F:0587
   152 274F:058A   154 274F:05A3   156 274F:05C0   157 274F:05DC
   159 274F:05E2   161 274F:05E9   162 274F:0606   163 274F:060C
   164 274F:063D   165 274F:0672   168 274F:0674   169 274F:0682
   152 274F:068B   174 274F:06AB   175 274F:06C5   176 274F:06ED
   101 274F:0710   178 274F:073A   179 274F:0740   180 274F:0756
   181 274F:078B   183 274F:0792   181 274F:07EE   185 274F:07F7
   186 274F:081F   187 274F:084B   188 274F:0893   190 274F:08B7
   191 274F:08CD   192 274F:08EA   195 274F:08ED   196 274F:0915
   197 274F:092B   198 274F:0935   199 274F:095D   200 274F:0977
   201 274F:099F   202 274F:09B7   203 274F:09DF   204 274F:09F8
   205 274F:0A15   207 274F:0A22   209 274F:0A45   210 274F:0A61
   212 274F:0A67   214 274F:0A77   215 274F:0AA4   216 274F:0AAB
   217 274F:0AEA   218 274F:0B28   219 274F:0B42   220 274F:0B6A
   221 274F:0B78   224 274F:0B7A   225 274F:0B8E   205 274F:0B9A
   232 274F:0BAF   234 274F:0BD5   235 274F:0BF6   237 274F:0C05
   238 274F:0C4D   240 274F:0C71   241 274F:0C87   242 274F:0CA4
   245 274F:0CA7   246 274F:0CB3   247 274F:0CB9   249 274F:0CC0
   251 274F:0CC7   252 274F:0CCE   249 274F:0CD2   254 274F:0CDE
   257 274F:0CE0   259 274F:0CE4   260 274F:0D0C   261 274F:0D24
   262 274F:0D3D   264 274F:0D4A   266 274F:0D6D   267 274F:0D89
   269 274F:0D8F   271 274F:0D9F   272 274F:0DCC   273 274F:0DD3
   274 274F:0E08   275 274F:0E46   276 274F:0E60   277 274F:0E88
   278 274F:0E96   281 274F:0E98   282 274F:0EAC   262 274F:0EB8
   286 274F:0ECD   289 274F:0ED0   290 274F:0ED6   291 274F:0EFE
   292 274F:0F16   293 274F:0F2F   295 274F:0F3C   297 274F:0F5F
   298 274F:0F7B   300 274F:0F81   302 274F:0F91   303 274F:0FBE
   304 274F:0FC5   305 274F:0FFA   306 274F:1038   307 274F:1052
   308 274F:107A   309 274F:1088   312 274F:108A   313 274F:109E
   293 274F:10AA   318 274F:10BF   319 274F:10E0   321 274F:10F9
   322 274F:10FF   323 274F:1103   324 274F:1107   325 274F:112F
   326 274F:1147   328 274F:1154   330 274F:1177   331 274F:1193
   333 274F:1199   335 274F:11A9   336 274F:11D6   337 274F:11DD
   338 274F:1212   339 274F:1250   340 274F:126A   341 274F:1292
   342 274F:12A0   345 274F:12A2   346 274F:12B6   326 274F:12C2
   350 274F:12D7   351 274F:1303   353 274F:1333   354 274F:1352
   356 274F:1364   357 274F:138C   358 274F:13A6   369 274F:13CC
   371 274F:13F0   373 274F:13F7   374 274F:1410   375 274F:1438
   371 274F:1442   377 274F:1451   378 274F:1467   379 274F:148F
   380 274F:14B2   381 274F:14CD   382 274F:14F0   386 274F:1514
   388 274F:151B   392 274F:1524   384 274F:1528   395 274F:154A
   396 274F:156C   399 274F:156E   401 274F:158D   405 274F:1596
   408 274F:15A0   409 274F:15B6   410 274F:15EB   411 274F:1613
   413 274F:161A   411 274F:1676   415 274F:167F   416 274F:16AB
   417 274F:16F3   419 274F:1717   420 274F:172D   421 274F:174A
   424 274F:174D   425 274F:1759   426 274F:1781   427 274F:1797
   428 274F:17A1   429 274F:17C9   430 274F:17E3   431 274F:180B
   432 274F:1823   433 274F:184B   434 274F:1864   435 274F:1881
   437 274F:188E   439 274F:18B1   440 274F:18CD   442 274F:18D3
   444 274F:18E3   445 274F:1910   446 274F:1917   447 274F:194C
   448 274F:198A   449 274F:19A4   450 274F:19CC   451 274F:19DA
   454 274F:19DC   455 274F:19F0   435 274F:19FC   459 274F:1A11
   460 274F:1A30   461 274F:1A3D   463 274F:1A4A   465 274F:1A70
   467 274F:1A96   468 274F:1AB7   470 274F:1AC6   471 274F:1B0E
   473 274F:1B32   474 274F:1B48   475 274F:1B65   478 274F:1B68
   479 274F:1B74   480 274F:1B7A   482 274F:1B81   484 274F:1B88
   485 274F:1B8F   482 274F:1B93   487 274F:1B9F   490 274F:1BA1
   492 274F:1BA5   493 274F:1BCD   494 274F:1BE5   495 274F:1BFE
   497 274F:1C0B   499 274F:1C2E   500 274F:1C4A   502 274F:1C50
   504 274F:1C60   505 274F:1C8D   506 274F:1C94   507 274F:1CC9
   508 274F:1D07   509 274F:1D21   510 274F:1D49   511 274F:1D57
   514 274F:1D59   515 274F:1D6D   495 274F:1D79   519 274F:1D8E
   522 274F:1D91   523 274F:1D97   524 274F:1DBF   525 274F:1DD7
   526 274F:1DF0   528 274F:1DFD   530 274F:1E20   531 274F:1E3C
   533 274F:1E42   535 274F:1E52   536 274F:1E7F   537 274F:1E86
   538 274F:1EBB   539 274F:1EF9   540 274F:1F13   541 274F:1F3B
   542 274F:1F49   545 274F:1F4B   546 274F:1F5F   526 274F:1F6B
   551 274F:1F80   552 274F:1FA1   554 274F:1FBA   555 274F:1FC0
   556 274F:1FC4   557 274F:1FC8   558 274F:1FF0   559 274F:2008
   561 274F:2015   563 274F:2038   564 274F:2054   566 274F:205A
   568 274F:206A   569 274F:2097   570 274F:209E   571 274F:20D3
   572 274F:2111   573 274F:212B   574 274F:2153   575 274F:2161
   578 274F:2163   579 274F:2177   559 274F:2183   583 274F:2198
   585 274F:21C4   586 274F:21F2   588 274F:21F4   589 274F:2213
   591 274F:2223   592 274F:224B   593 274F:2265   595 274F:2288
   596 274F:22B0   597 274F:22CA   598 274F:22ED   602 274F:22F3
Line numbers for cncisref.obj(..\cncdrv\cncisref.cpp) segment CNCISREF_TEXT

    18 297E:0007    23 297E:000F    24 297E:0031    25 297E:0043
    27 297E:0055    29 297E:006E    30 297E:0080    31 297E:0090
    33 297E:00A1    34 297E:00F6    35 297E:0107    36 297E:0129
    37 297E:013A    38 297E:0152    39 297E:0164    40 297E:0174
    41 297E:0182    42 297E:0188    44 297E:0192    45 297E:019A
    46 297E:01A9    47 297E:01B4    48 297E:01CB    49 297E:01E1
    50 297E:01F7    51 297E:020B    52 297E:021C    53 297E:0230
    54 297E:024E    57 297E:0251    60 297E:0296    61 297E:02A1
    62 297E:02B2    63 297E:02C7    64 297E:02D3    65 297E:02E0
    67 297E:02F2    68 297E:0332    69 297E:0349    70 297E:035D
    71 297E:036F    74 297E:0371    75 297E:03B1    76 297E:03C8
    78 297E:03E6    79 297E:03FE    80 297E:040B    81 297E:041F
    82 297E:0436    83 297E:044A    84 297E:045B    87 297E:046B
    89 297E:0484    90 297E:0491    92 297E:04A4    93 297E:04B5
    94 297E:04C9    95 297E:04D6    96 297E:04EC    97 297E:04FD
    98 297E:050C    99 297E:0523   102 297E:0526   103 297E:0537
   104 297E:054B   105 297E:0562   106 297E:0577   107 297E:058F
   108 297E:059C   109 297E:05A9   111 297E:05B8   114 297E:05C5
   118 297E:0602   121 297E:0620   124 297E:0673   125 297E:0684
   126 297E:0691   127 297E:069D   129 297E:06AF   130 297E:06EF
   131 297E:0706   132 297E:0718   133 297E:0727   134 297E:0734
   137 297E:0736   138 297E:0776   139 297E:078D   140 297E:079F
   142 297E:07B1   143 297E:07C9   144 297E:07D6   145 297E:07E5
   146 297E:07FC   147 297E:0810   151 297E:0824   153 297E:0848
   154 297E:0859   158 297E:086D   161 297E:08A5   162 297E:08B9
   163 297E:08D0   164 297E:08E0   165 297E:08EE   166 297E:08FA
   170 297E:090E   172 297E:0938   173 297E:0949   177 297E:095D
   179 297E:0971   180 297E:0983   181 297E:0994   182 297E:09BB
   183 297E:0A10   184 297E:0A37   185 297E:0A60   186 297E:0A74
   187 297E:0A98   189 297E:0AAE   190 297E:0AC0   194 297E:0AD7
   197 297E:0B27   198 297E:0B38   202 297E:0B4C   204 297E:0B60
   205 297E:0B71   206 297E:0B7D   210 297E:0B92   212 297E:0BBE
   214 297E:0BCF   215 297E:0C24   216 297E:0C35   217 297E:0C57
   218 297E:0C68   219 297E:0C80   220 297E:0C92   221 297E:0CA2
   222 297E:0CB0   223 297E:0CB6   225 297E:0CC0   226 297E:0CC8
   227 297E:0CD7   228 297E:0CE2   229 297E:0CF9   230 297E:0D0D
   232 297E:0D10   235 297E:0D24   237 297E:0D38   238 297E:0D49
   239 297E:0D5D   240 297E:0D74   241 297E:0D89   242 297E:0D9B
   243 297E:0DB3   247 297E:0DC2   255 297E:0E0A   268 297E:0EDE
   269 297E:0EF2   270 297E:0F01   271 297E:0F15   272 297E:0F26
   273 297E:0F3C   274 297E:0F52   275 297E:0F58   277 297E:0F62
   278 297E:0F6A   279 297E:0F75   280 297E:0F80   283 297E:0F82
   284 297E:0F96   286 297E:0FA3   287 297E:0FB7   290 297E:0FC3
   291 297E:0FE1   293 297E:0FEE   300 297E:1048
Line numbers for cncispoz.obj(..\cncdrv\cncispoz.cpp) segment CNCISPOZ_TEXT

    27 2A84:0002    30 2A84:000A    31 2A84:002C    32 2A84:003E
    34 2A84:0056    35 2A84:0060    36 2A84:006E    37 2A84:0080
    39 2A84:0094    40 2A84:011C    41 2A84:0144    43 2A84:0158
    44 2A84:016C    45 2A84:0180    48 2A84:0185    49 2A84:01DD
    50 2A84:0201    52 2A84:0215    54 2A84:0229    55 2A84:0242
    56 2A84:0252    57 2A84:0270    60 2A84:0281    62 2A84:0295
    65 2A84:02C5    66 2A84:02D6    67 2A84:032E    68 2A84:0342
    69 2A84:0364    71 2A84:0378    76 2A84:038C    77 2A84:03CA
    78 2A84:03DC    79 2A84:03F0    81 2A84:0416    82 2A84:0459
    83 2A84:046B    86 2A84:0476    87 2A84:048A    89 2A84:04BD
    93 2A84:04C1   105 2A84:04CA   107 2A84:04D7   108 2A84:04DF
   107 2A84:04E9   109 2A84:04F4   110 2A84:0506   113 2A84:051A
   114 2A84:052C   115 2A84:053E   116 2A84:0548   119 2A84:059B
   120 2A84:05A6   149 2A84:05B8   150 2A84:05BF   153 2A84:05C3
   154 2A84:05CA   155 2A84:05DE   157 2A84:05F2   158 2A84:0606
   160 2A84:061C   161 2A84:0643   162 2A84:0669   163 2A84:068C
   164 2A84:06B8   165 2A84:06CC   166 2A84:06DE   167 2A84:06F7
   168 2A84:0771   169 2A84:0790   170 2A84:07B2   179 2A84:07C2
   180 2A84:07D6   182 2A84:07D9   183 2A84:07FD   184 2A84:080D
   186 2A84:0849   189 2A84:0887   190 2A84:089B   191 2A84:08AF
   193 2A84:08C5   194 2A84:08D6   195 2A84:08EA   196 2A84:0900
   205 2A84:0911   206 2A84:0925   210 2A84:0932   212 2A84:0936
   214 2A84:093E   215 2A84:0950   216 2A84:096A   221 2A84:0981
   222 2A84:098D   228 2A84:0991   230 2A84:09A9   234 2A84:09C7
   235 2A84:09D3   236 2A84:09E9   239 2A84:0A43   242 2A84:0A5A
   244 2A84:0A68   247 2A84:0A8C   248 2A84:0ABA   249 2A84:0AED
   253 2A84:0B22   254 2A84:0B52   255 2A84:0B80   257 2A84:0BAE
   259 2A84:0BC4   260 2A84:0C26   263 2A84:0C74   264 2A84:0C97
   266 2A84:0CB3   267 2A84:0CC9   268 2A84:0CF7   270 2A84:0D1B
Line numbers for cncires.obj(..\cncdrv\cncires.cpp) segment CNCIRES_TEXT

    13 2B55:000F    15 2B55:0017    17 2B55:0028    18 2B55:0062
    19 2B55:0093    20 2B55:00B5    21 2B55:00E0    15 2B55:00EF
    23 2B55:0104    24 2B55:010C    23 2B55:011C    25 2B55:0128
    26 2B55:0141    27 2B55:0168    28 2B55:018C    30 2B55:01AE
    31 2B55:0204    32 2B55:0236    33 2B55:0256    34 2B55:0272
    36 2B55:0288
Line numbers for cncieoks.obj(..\cncdrv\cncieoks.cpp) segment CNCIEOKS_TEXT

    16 2B7D:000C    20 2B7D:0014    21 2B7D:0018    23 2B7D:0020
    24 2B7D:0042    25 2B7D:0051    28 2B7D:0095    29 2B7D:00B7
    30 2B7D:00DF    32 2B7D:00F3    33 2B7D:0107    35 2B7D:012B
    36 2B7D:013F    38 2B7D:014D    39 2B7D:0169    40 2B7D:0194
    44 2B7D:01BF    45 2B7D:01D3    47 2B7D:01DD    48 2B7D:0209
    49 2B7D:022F    50 2B7D:0243    53 2B7D:025A    56 2B7D:0282
    57 2B7D:02AA    58 2B7D:02CD    61 2B7D:02DA    62 2B7D:02F7
    65 2B7D:031A    66 2B7D:0333    67 2B7D:034A    70 2B7D:03BE
    72 2B7D:03D5    76 2B7D:0438    80 2B7D:0467    81 2B7D:047E
    82 2B7D:0495    84 2B7D:04AC    88 2B7D:04C2    90 2B7D:0507
    91 2B7D:0537    92 2B7D:055A    95 2B7D:0568    96 2B7D:0578
    98 2B7D:059B    99 2B7D:05B4   100 2B7D:05CB   102 2B7D:05FC
   104 2B7D:0613   108 2B7D:0676   111 2B7D:06E5   112 2B7D:06FC
   114 2B7D:0713   116 2B7D:0758   117 2B7D:077B   118 2B7D:0794
   121 2B7D:0818   122 2B7D:082F   124 2B7D:0845   126 2B7D:087F
   129 2B7D:088E   130 2B7D:08C0   131 2B7D:08D6   142 2B7D:0ABF
   149 2B7D:0BF3   152 2B7D:0BF9   155 2B7D:0C08   158 2B7D:0C3F
   159 2B7D:0C53   161 2B7D:0C71   162 2B7D:0C9E   163 2B7D:0CB0
   164 2B7D:0CBA   166 2B7D:0CC6   170 2B7D:0D18   171 2B7D:0D22
   172 2B7D:0D36   174 2B7D:0D54   175 2B7D:0D81   176 2B7D:0D93
   180 2B7D:0D9F   182 2B7D:0DD2   183 2B7D:0DEC   184 2B7D:0E22
   186 2B7D:0E4F   187 2B7D:0E85   189 2B7D:0EB1   191 2B7D:0EF5
   192 2B7D:0F23   196 2B7D:0F76   197 2B7D:0F8E   199 2B7D:0FB4
   202 2B7D:0FF2   203 2B7D:1000   204 2B7D:1014   205 2B7D:1028
   207 2B7D:103C   208 2B7D:1047   209 2B7D:105B   210 2B7D:1068
   215 2B7D:1083
Line numbers for cncicrfn.obj(..\cncdrv\cncicrfn.cpp) segment CNCICRFN_TEXT

    36 2C85:0007    51 2C85:000F    52 2C85:0031    53 2C85:0047
    54 2C85:005B    55 2C85:009D    57 2C85:00B9    58 2C85:00BE
    62 2C85:0119    63 2C85:011E    64 2C85:0134    66 2C85:014A
    67 2C85:0174    68 2C85:0183    70 2C85:01A8    69 2C85:01B7
    71 2C85:01CC    73 2C85:01E1    74 2C85:01E8    77 2C85:01F2
    79 2C85:0207    80 2C85:0210    83 2C85:0218    85 2C85:022D
    86 2C85:0234    89 2C85:0240    91 2C85:026B    92 2C85:0272
    96 2C85:027A    97 2C85:02A5    99 2C85:02B3   101 2C85:02DD
   102 2C85:02E6   103 2C85:02ED   106 2C85:02F9   108 2C85:0323
   109 2C85:0330   112 2C85:033B   114 2C85:0365   115 2C85:036C
   116 2C85:0375   118 2C85:0384   119 2C85:03DE   120 2C85:0409
   121 2C85:0463   122 2C85:0479   124 2C85:0489   126 2C85:049C
   127 2C85:04C3   129 2C85:04EC   131 2C85:0517   132 2C85:052E
   133 2C85:0562   135 2C85:0579   136 2C85:05AF   137 2C85:05ED
   138 2C85:061D   141 2C85:061F   142 2C85:0649   144 2C85:0665
   145 2C85:0690   146 2C85:06A7   147 2C85:06DB   148 2C85:06F2
   149 2C85:0728   150 2C85:0766   151 2C85:0796   153 2C85:0798
   154 2C85:07C2   156 2C85:07DE   157 2C85:07F6   158 2C85:080E
   159 2C85:085C   157 2C85:0871   161 2C85:0896   163 2C85:0899
   164 2C85:0903   165 2C85:0921   166 2C85:098B   170 2C85:09A9
   173 2C85:09AD   176 2C85:09B5   177 2C85:09D7   178 2C85:09DC
   179 2C85:09F4   180 2C85:09F9   181 2C85:0A33   182 2C85:0AD9
   183 2C85:0AFE   185 2C85:0B28   186 2C85:0B80   187 2C85:0C1E
   188 2C85:0C4B   190 2C85:0C75   193 2C85:0C79   196 2C85:0C81
   197 2C85:0CA3   198 2C85:0CA8   199 2C85:0CC0   200 2C85:0CC5
   201 2C85:0CFF   202 2C85:0DA5   203 2C85:0DCA   205 2C85:0DF4
   206 2C85:0E2E   207 2C85:0ECC   208 2C85:0EF9   210 2C85:0F23
   211 2C85:0F85   212 2C85:1023   213 2C85:1050   215 2C85:107A
   218 2C85:107E   221 2C85:1086   222 2C85:10A8   223 2C85:10BE
   224 2C85:10D4   225 2C85:10D9   226 2C85:10F1   227 2C85:10F6
   228 2C85:112A   229 2C85:117D   230 2C85:11A7   231 2C85:124D
   232 2C85:1272   233 2C85:128E   234 2C85:12F9   235 2C85:1325
   237 2C85:1341   240 2C85:1345   243 2C85:134D   244 2C85:136F
   245 2C85:1374   246 2C85:138C   247 2C85:1391   248 2C85:13AC
   250 2C85:13CB   251 2C85:13F3   252 2C85:1491   253 2C85:14BE
   255 2C85:14E8   257 2C85:1537   258 2C85:158A   259 2C85:15B6
   261 2C85:15D2   262 2C85:1625   263 2C85:1651   265 2C85:166D
   267 2C85:1671   270 2C85:1679   271 2C85:169B   272 2C85:16AD
   273 2C85:16C5   274 2C85:16D7   275 2C85:16F2   277 2C85:1711
   278 2C85:1739   279 2C85:17DD   280 2C85:180A   282 2C85:183A
   283 2C85:187B   284 2C85:18A7   285 2C85:18B4   286 2C85:18E0
   289 2C85:190C   292 2C85:1910   295 2C85:1918   296 2C85:193A
   297 2C85:193F   298 2C85:1957   299 2C85:195C   300 2C85:1977
   302 2C85:1996   303 2C85:19BE   304 2C85:1A5C   305 2C85:1A89
   307 2C85:1AB3   309 2C85:1B02   310 2C85:1B4E   311 2C85:1B7A
   313 2C85:1B96   314 2C85:1BE2   315 2C85:1C0E   317 2C85:1C2A
   318 2C85:1C6B   319 2C85:1C97   320 2C85:1CA4   321 2C85:1CD0
   324 2C85:1CFC
Line numbers for cncciuna.obj(..\cncci\cncciuna.cpp) segment CNCCIUNA_TEXT

    14 2E55:0000    24 2E55:0008    25 2E55:0012    26 2E55:001C
    29 2E55:0037    30 2E55:005F    33 2E55:006C    34 2E55:0092
    35 2E55:009C    38 2E55:00B4    39 2E55:00DA    40 2E55:00E4
    43 2E55:00FC    44 2E55:0122    45 2E55:012C    48 2E55:0144
    49 2E55:015A    52 2E55:016C    53 2E55:0192    56 2E55:0194
    60 2E55:01BC    61 2E55:01E2    63 2E55:01EC    65 2E55:0204
    67 2E55:022C    68 2E55:0239    69 2E55:023E    70 2E55:0243
    72 2E55:024B    75 2E55:02B1    76 2E55:02CD    77 2E55:02E0
    78 2E55:02E5    81 2E55:02E7    83 2E55:0306    84 2E55:0317
    85 2E55:031C    87 2E55:031E    88 2E55:033D    90 2E55:035B
    70 2E55:0368    92 2E55:0373    93 2E55:037F    95 2E55:0389
Line numbers for cnccisvl.obj(..\cncci\cnccisvl.cpp) segment CNCCISVL_TEXT

    14 2E8E:000F    25 2E8E:0017    27 2E8E:0029    28 2E8E:0035
    29 2E8E:0041    30 2E8E:004D    31 2E8E:0059    32 2E8E:0065
    33 2E8E:0074    34 2E8E:008A    36 2E8E:00AF    37 2E8E:00C9
    39 2E8E:00DD    40 2E8E:0108    42 2E8E:0121    44 2E8E:0144
    45 2E8E:015E    47 2E8E:0172    48 2E8E:019D    50 2E8E:01B6
    52 2E8E:01E1    53 2E8E:01FB    55 2E8E:0215    56 2E8E:0246
    58 2E8E:0265    60 2E8E:0288    61 2E8E:02A2    63 2E8E:02B6
    64 2E8E:02D4    66 2E8E:02ED    68 2E8E:0316    69 2E8E:0333
    70 2E8E:034A    71 2E8E:0359    73 2E8E:0378    75 2E8E:0388
    76 2E8E:03AE    78 2E8E:03B6    79 2E8E:03DC    81 2E8E:03E4
    82 2E8E:03EE    84 2E8E:042A    87 2E8E:0439    88 2E8E:0450
    89 2E8E:045F    91 2E8E:0488    92 2E8E:04A5    94 2E8E:04C6
    97 2E8E:04E2    98 2E8E:04EE   102 2E8E:0508   103 2E8E:0516
   104 2E8E:052E   105 2E8E:0545   106 2E8E:055E   107 2E8E:056C
   108 2E8E:0571   109 2E8E:0576   111 2E8E:0584   115 2E8E:0593
   119 2E8E:05A8   125 2E8E:05FC   126 2E8E:0607   128 2E8E:0622
   130 2E8E:0631   136 2E8E:0689   137 2E8E:0694   144 2E8E:06B2
   150 2E8E:0706   151 2E8E:0711   153 2E8E:072C   155 2E8E:0739
   161 2E8E:078D   162 2E8E:0798   165 2E8E:07B3   167 2E8E:07CB
   172 2E8E:07D4   173 2E8E:07DF   177 2E8E:07EC   179 2E8E:07F7
   180 2E8E:080F   181 2E8E:081D   182 2E8E:0835   183 2E8E:083A
   188 2E8E:084B   189 2E8E:087B   190 2E8E:0889   193 2E8E:088B
   194 2E8E:08A2   196 2E8E:08B0   197 2E8E:08C8   198 2E8E:08CD
   199 2E8E:08D2   201 2E8E:08E0   205 2E8E:08EF   207 2E8E:08FF
   209 2E8E:0915   210 2E8E:0922   212 2E8E:0931   213 2E8E:094D
   215 2E8E:0955   216 2E8E:096D   217 2E8E:0993   218 2E8E:09A1
   219 2E8E:09A6   220 2E8E:09AB   222 2E8E:09B9   225 2E8E:09C8
   226 2E8E:09E0   227 2E8E:0A09   228 2E8E:0A17   229 2E8E:0A1C
   230 2E8E:0A21   213 2E8E:0A32   237 2E8E:0A40   238 2E8E:0A58
   239 2E8E:0A66   240 2E8E:0A7E   241 2E8E:0A95   242 2E8E:0A9E
   244 2E8E:0AAC   245 2E8E:0AB8   246 2E8E:0ABD   247 2E8E:0AC2
   249 2E8E:0AD0   253 2E8E:0ADF   261 2E8E:0AF4   262 2E8E:0AFF
   266 2E8E:0B0C   268 2E8E:0B17   269 2E8E:0B2F   270 2E8E:0B34
   272 2E8E:0B44   280 2E8E:0B47   281 2E8E:0B52   285 2E8E:0B5F
   286 2E8E:0B6A   287 2E8E:0B82   288 2E8E:0B87   294 2E8E:0B97
   302 2E8E:0BAA   303 2E8E:0BBA   304 2E8E:0BD4   305 2E8E:0BD9
   307 2E8E:0BE7   311 2E8E:0BF6   318 2E8E:0C0B   319 2E8E:0C16
   320 2E8E:0C2E   321 2E8E:0C33   332 2E8E:0C46   333 2E8E:0C51
   334 2E8E:0C6A   338 2E8E:0C79   339 2E8E:0C84   341 2E8E:0C9F
   342 2E8E:0CB7   343 2E8E:0CCF   344 2E8E:0CD4   346 2E8E:0CE4
   355 2E8E:0CF3   356 2E8E:0CFE   357 2E8E:0D17   361 2E8E:0D26
   362 2E8E:0D31   364 2E8E:0D4C   365 2E8E:0D64   366 2E8E:0D7C
   367 2E8E:0D81   375 2E8E:0D91   376 2E8E:0DBF   377 2E8E:0DCD
   378 2E8E:0DE5   379 2E8E:0DEA   380 2E8E:0DEF   382 2E8E:0DFD
   386 2E8E:0E0C   389 2E8E:0E15   394 2E8E:0E69   395 2E8E:0E74
   400 2E8E:0E76   402 2E8E:0E81   404 2E8E:0E8E   409 2E8E:0EE2
   410 2E8E:0EED   415 2E8E:0EEF   418 2E8E:0EFA   419 2E8E:0F12
   420 2E8E:0F17   422 2E8E:0F25   427 2E8E:0F34   435 2E8E:0F49
   436 2E8E:0F60   437 2E8E:0F6E   438 2E8E:0F86   439 2E8E:0F94
   440 2E8E:0FAC   441 2E8E:0FB1   442 2E8E:0FB6   447 2E8E:0FC6
   449 2E8E:0FCF   451 2E8E:0FDD   452 2E8E:0FED   453 2E8E:1007
   454 2E8E:101F   455 2E8E:1024   457 2E8E:1034   462 2E8E:1043
   464 2E8E:104C   465 2E8E:1063   466 2E8E:1071   467 2E8E:1089
   468 2E8E:1097   469 2E8E:10AF   470 2E8E:10B4   471 2E8E:10B9
   487 2E8E:10CB   488 2E8E:10D2   490 2E8E:10EB   491 2E8E:1104
   492 2E8E:1110   493 2E8E:1128   494 2E8E:112D   495 2E8E:1132
   497 2E8E:1140   502 2E8E:114F   507 2E8E:1156   508 2E8E:1161
   512 2E8E:116E   514 2E8E:1179   515 2E8E:1191   516 2E8E:1196
   522 2E8E:11A6   524 2E8E:11B4   525 2E8E:11E4   526 2E8E:11F2
   527 2E8E:120A   528 2E8E:120F   529 2E8E:1214   531 2E8E:1222
   535 2E8E:1231   537 2E8E:123A   538 2E8E:1251   539 2E8E:125F
   540 2E8E:1277   541 2E8E:127C   542 2E8E:1281   547 2E8E:1291
   548 2E8E:12BF   549 2E8E:12CD   550 2E8E:12E5   551 2E8E:12EA
   552 2E8E:12EF   554 2E8E:12FD   558 2E8E:130C   565 2E8E:1321
   570 2E8E:1375   571 2E8E:1380   576 2E8E:1382   578 2E8E:138D
   580 2E8E:139A   585 2E8E:13EE   586 2E8E:13F9   591 2E8E:13FB
   593 2E8E:1406   594 2E8E:141E   595 2E8E:1423   597 2E8E:1431
   601 2E8E:143F   604 2E8E:144B   606 2E8E:14EB   609 2E8E:14ED
   610 2E8E:14EF   609 2E8E:150D   613 2E8E:1513
Line numbers for cnccism0.obj(..\cncci\cnccism0.cpp) segment CNCCISM0_TEXT

    16 2FDF:0006    19 2FDF:000E    20 2FDF:0021    21 2FDF:003C
    23 2FDF:004F    24 2FDF:005D    26 2FDF:0079    28 2FDF:008C
    29 2FDF:009A    30 2FDF:00B6    32 2FDF:00C9    33 2FDF:00D7
    35 2FDF:00E4    36 2FDF:00E8    35 2FDF:0104    37 2FDF:010E
    39 2FDF:0110    40 2FDF:011E    42 2FDF:012D    43 2FDF:013C
    44 2FDF:0147    43 2FDF:016C    40 2FDF:0176    46 2FDF:0187
    48 2FDF:0190    51 2FDF:0198    52 2FDF:01B6    58 2FDF:01C8
    59 2FDF:01CE    62 2FDF:01E8    63 2FDF:01EB    65 2FDF:01ED
    68 2FDF:01F2    71 2FDF:01F9    74 2FDF:0200    77 2FDF:0207
    79 2FDF:020F    80 2FDF:0256    81 2FDF:0287    83 2FDF:02A2
    84 2FDF:02AF    85 2FDF:02BF    87 2FDF:02D0    88 2FDF:02E5
    85 2FDF:02F7    90 2FDF:0304    92 2FDF:0306    93 2FDF:0310
    94 2FDF:031C    96 2FDF:032C    99 2FDF:0331   100 2FDF:0335
    99 2FDF:0343   101 2FDF:034C
Line numbers for cnccirnd.obj(..\cncci\cnccirnd.cpp) segment CNCCIRND_TEXT

    21 3014:0000    30 3014:0008    32 3014:000D    33 3014:000F
    32 3014:0014    35 3014:001A    37 3014:0028    38 3014:0041
    40 3014:0048    41 3014:0061    43 3014:007D    45 3014:008B
    46 3014:00A4    48 3014:00AB    49 3014:00C4    51 3014:00E0
    52 3014:00FC    55 3014:010B    57 3014:0113    59 3014:0123
    60 3014:013C    63 3014:0141    65 3014:0151    67 3014:0153
    69 3014:016B    71 3014:0188    72 3014:0193    65 3014:0195
    76 3014:019B    78 3014:01AB    81 3014:01FB    82 3014:01FE
    83 3014:0203    86 3014:0210    88 3014:025F    91 3014:02B1
    92 3014:0301    93 3014:030B    94 3014:0315    84 3014:0318
    97 3014:0320   104 3014:0326   106 3014:032D    61 3014:0330
   110 3014:0338   113 3014:036E   114 3014:03C6   116 3014:03D2
   118 3014:0475   119 3014:04CD   121 3014:04D9   123 3014:057C
   125 3014:0658   127 3014:065A   128 3014:065F   129 3014:066D
   130 3014:0677   132 3014:06A2   133 3014:06E0   134 3014:0720
   135 3014:077A   137 3014:07A1   138 3014:07C8   139 3014:0820
   141 3014:0847   142 3014:086E   143 3014:0880   145 3014:0898
   147 3014:08A3   149 3014:08B3   151 3014:08CE   152 3014:091A
   153 3014:0968   154 3014:09C2   156 3014:09E9   157 3014:0A10
   158 3014:0A6A   160 3014:0A89   161 3014:0AA8   164 3014:0AB9
   165 3014:0AC3   166 3014:0ACF   167 3014:0AE7   168 3014:0AF5
   170 3014:0B03   171 3014:0B08
Line numbers for cnccirnc.obj(..\cncci\cnccirnc.cpp) segment CNCCIRNC_TEXT

    22 30C4:000C    25 30C4:000E    27 30C4:0040    29 30C4:005F
    32 30C4:0091    33 30C4:009F    34 30C4:00AA    35 30C4:00C6
    37 30C4:00C9    40 30C4:00FB    42 30C4:0109    43 30C4:0114
    44 30C4:011F    45 30C4:0137    46 30C4:014F    48 30C4:0151
    50 30C4:0156    54 30C4:0159    75 30C4:0162    76 30C4:016B
    77 30C4:0174    78 30C4:017D    79 30C4:0186    83 30C4:02A2
    86 30C4:0306    87 30C4:0344    88 30C4:0384    89 30C4:03C4
    90 30C4:0404    91 30C4:0444    92 30C4:0484    93 30C4:04A0
    95 30C4:04AE    96 30C4:04BA    97 30C4:04D0    98 30C4:04DE
    99 30C4:04E8   107 30C4:04EB   109 30C4:05B3   110 30C4:05C2
   112 30C4:068C   113 30C4:069B   115 30C4:071D   116 30C4:072C
   118 30C4:07AE   119 30C4:07BD   120 30C4:07E3   121 30C4:0806
   122 30C4:082C   123 30C4:084E   124 30C4:0874   125 30C4:0897
   132 30C4:08C6   134 30C4:08DD   135 30C4:08E5   136 30C4:08ED
   141 30C4:08FF   148 30C4:0909   150 30C4:09D1   151 30C4:09E0
   153 30C4:0AAA   154 30C4:0AB9   156 30C4:0B3B   157 30C4:0B4A
   158 30C4:0B4E   160 30C4:0B6C   169 30C4:0C2C   174 30C4:0CDF
   176 30C4:0CE2   178 30C4:0CFE   187 30C4:0DBE   192 30C4:0E71
   193 30C4:0E74   194 30C4:0E7E   196 30C4:0EA2   198 30C4:0EA7
   200 30C4:0EAB   205 30C4:0EB3   207 30C4:0ECD   208 30C4:0EE1
   210 30C4:0EEB   214 30C4:0EFA   215 30C4:0F0E   217 30C4:0F1D
   219 30C4:0F2E   220 30C4:0F32   222 30C4:0F36   224 30C4:0F3E
   226 30C4:0FE6   227 30C4:1002   229 30C4:10AC   230 30C4:10C8
   231 30C4:111B   232 30C4:1144   233 30C4:1195   234 30C4:11BE
   239 30C4:11C2   250 30C4:11CB   251 30C4:11D4   252 30C4:11DD
   253 30C4:11E6   256 30C4:11EF   260 30C4:1318   265 30C4:1374
   267 30C4:13B8   268 30C4:13F6   269 30C4:1436   270 30C4:1476
   271 30C4:14B6   272 30C4:14C4   273 30C4:1500   274 30C4:1519
   275 30C4:1555   276 30C4:156E   277 30C4:1578   284 30C4:157B
   285 30C4:15A5   286 30C4:15D1   287 30C4:1645   288 30C4:16B9
   290 30C4:16CD   291 30C4:16D5   295 30C4:16DF   296 30C4:16E7
   300 30C4:16F1   302 30C4:179D   303 30C4:17AC   305 30C4:185A
   306 30C4:1869   308 30C4:18DD   309 30C4:18EC   316 30C4:1A5A
   322 30C4:1BC6   328 30C4:1BC9   330 30C4:1BDE   341 30C4:1C8E
   346 30C4:1D31   351 30C4:1D69   353 30C4:1D6D   357 30C4:1D72
   358 30C4:1DC4   359 30C4:1E18   360 30C4:1E4B   361 30C4:1E56
   362 30C4:1E60   363 30C4:1E64   369 30C4:1E72   370 30C4:1E94
   371 30C4:1EB8   372 30C4:1F02   374 30C4:1F0E   377 30C4:1F91
   379 30C4:2036   382 30C4:2040   384 30C4:2047   386 30C4:20C8
   387 30C4:20EC   391 30C4:210F   393 30C4:2190   394 30C4:21B4
   396 30C4:21DA   397 30C4:21F0   399 30C4:2204   401 30C4:220F
   404 30C4:225B
Line numbers for cnccirds.obj(..\cncci\cnccirds.cpp) segment CNCCIRDS_TEXT

    11 32E9:000F    22 32E9:0017    23 32E9:0021    24 32E9:002B
    25 32E9:0097    27 32E9:00A1    29 32E9:00D5    30 32E9:0103
    34 32E9:0131    35 32E9:014A    37 32E9:0167    38 32E9:01C9
    39 32E9:01FD    40 32E9:0207
Line numbers for cnccipol.obj(..\cncci\cnccipol.cpp) segment CNCCIPOL_TEXT

    15 3309:000B    19 3309:0013    20 3309:0026    21 3309:0046
    22 3309:0068    23 3309:008A    24 3309:00A3    27 3309:00CF
    31 3309:00E6    33 3309:00FD    34 3309:0112    37 3309:011F
    38 3309:0154    39 3309:0189    40 3309:0192    43 3309:019F
    44 3309:01B4    47 3309:01C1    48 3309:01FC    49 3309:0231
    50 3309:023A    53 3309:0246    55 3309:0263    56 3309:026E
    59 3309:027A    61 3309:0288    63 3309:029D    67 3309:02C9
    68 3309:02D7    73 3309:02ED    80 3309:0308    82 3309:031F
    83 3309:0334    86 3309:0341    87 3309:034F    88 3309:0388
    91 3309:03A6    92 3309:03BB    95 3309:03C8    96 3309:03D6
    97 3309:0415    99 3309:044E   101 3309:045D   102 3309:04AD
   104 3309:0501
Line numbers for cnccimrr.obj(..\cncci\cnccimrr.cpp) segment CNCCIMRR_TEXT

    19 3359:0005    23 3359:000D    24 3359:0020    25 3359:0033
    26 3359:0046    27 3359:0059    29 3359:006C    31 3359:007F
    32 3359:0096    34 3359:00A0    36 3359:00B6    38 3359:00C8
    40 3359:00EA    41 3359:010C    45 3359:012E    46 3359:0142
    32 3359:015A    50 3359:016A    52 3359:016C    54 3359:0176
    56 3359:018A    57 3359:019E    52 3359:01B6    61 3359:01C4
    63 3359:01D7    64 3359:01EE    66 3359:021B    67 3359:0226
    69 3359:024F    70 3359:025B    72 3359:0262    74 3359:0285
    76 3359:02A7    77 3359:02B2    78 3359:02BC    80 3359:02BE
    81 3359:02D3    82 3359:0316    83 3359:0321    87 3359:033F
    88 3359:0352    70 3359:0369    91 3359:0377    94 3359:03A7
    97 3359:03B1    99 3359:03C4   100 3359:03DB   101 3359:03E6
   102 3359:03F1   103 3359:03FC   105 3359:0403   106 3359:0416
   107 3359:042B   103 3359:0442   110 3359:044E   114 3359:0452
   118 3359:045A   119 3359:046D   120 3359:0480   121 3359:0493
   122 3359:04A6   124 3359:04B9   126 3359:04C9   128 3359:04D3
   129 3359:0512   126 3359:051C   131 3359:052A   133 3359:055F
   134 3359:05B9   135 3359:05C6   136 3359:05F3   137 3359:05FE
   138 3359:062B   139 3359:064C   141 3359:06E8   142 3359:06F7
   143 3359:0735   144 3359:0773   145 3359:079B   146 3359:07AE
   147 3359:07FF   149 3359:0852   151 3359:08EE   152 3359:08FD
   153 3359:0925   154 3359:0938   155 3359:0989   157 3359:09DC
   159 3359:09FA   161 3359:0A2F   163 3359:0ABD   164 3359:0AC7
   165 3359:0AF4   166 3359:0B6E   167 3359:0B9B   169 3359:0C15
   170 3359:0C42   171 3359:0CBC   172 3359:0CE9   173 3359:0D63
   175 3359:0D85   176 3359:0DB3   178 3359:0DD4   180 3359:0E10
   182 3359:0E1D   183 3359:0E2E   184 3359:0E40   185 3359:0E51
   188 3359:0E61   190 3359:0E72   191 3359:0E79   190 3359:0E95
   193 3359:0EA1   195 3359:0EA5   201 3359:0EAD   202 3359:0EB9
   203 3359:0EC5   204 3359:0EF1   206 3359:0F0F   208 3359:0F25
   209 3359:0F33   211 3359:0F47   212 3359:0F62   213 3359:0F70
   216 3359:0F73   221 3359:0F86   223 3359:0F9C   224 3359:0FAC
   226 3359:0FC0   227 3359:0FCE   228 3359:0FDC   231 3359:0FDF
   232 3359:0FEF   237 3359:1000   238 3359:1014   240 3359:1064
   243 3359:1088   244 3359:10AC   245 3359:10C1   247 3359:10D7
   249 3359:10FF   250 3359:1113   251 3359:1121   253 3359:1124
   255 3359:114C   256 3359:1160   257 3359:116E   259 3359:1171
   261 3359:1199   262 3359:11AD   263 3359:11BB   265 3359:11BD
   267 3359:11E5   268 3359:11FE   271 3359:120C
Line numbers for cnccill.obj(..\cncci\cnccill.cpp) segment CNCCILL_TEXT

    21 347A:0000    31 347A:0008    32 347A:0011    33 347A:001A
    35 347A:0030    37 347A:0045    38 347A:0055    40 347A:0067
    42 347A:00A6    45 347A:0158    46 347A:0163    47 347A:017B
    52 347A:0196    53 347A:01D4    54 347A:0214    55 347A:0254
    56 347A:0294    57 347A:02D2    59 347A:02ED    60 347A:0308
    61 347A:0344    63 347A:035F    64 347A:037A    65 347A:0386
    66 347A:0392    71 347A:039F    72 347A:03F3    74 347A:041D
    79 347A:042B    81 347A:0461    82 347A:0479    92 347A:0795
   100 347A:0AB1   103 347A:0AD1   104 347A:0AEA   107 347A:0B36
   110 347A:0B3A   130 347A:0B43   132 347A:0B52   133 347A:0B5E
   134 347A:0B9C   135 347A:0BDC   136 347A:0C1C   137 347A:0C5C
   138 347A:0C9C   139 347A:0CDC   140 347A:0CF2   142 347A:0D84
   143 347A:0D93   145 347A:0E25   146 347A:0E34   147 347A:0E42
   148 347A:0E68   149 347A:0E7C   150 347A:0E89   151 347A:0E9D
   152 347A:0EB5   153 347A:0EC1   154 347A:0ECD   155 347A:0ED7
   158 347A:0EDA   160 347A:0F5C   161 347A:0F6F   162 347A:0F86
   163 347A:0F95   164 347A:0FBD   165 347A:0FE5   170 347A:101F
   171 347A:1057   172 347A:1059   175 347A:1091   176 347A:10C9
   177 347A:10CB   178 347A:10F2   180 347A:11AE   181 347A:11BA
   183 347A:11D2   184 347A:120C   185 347A:121F   186 347A:1236
   187 347A:1245   188 347A:125B   190 347A:1265   191 347A:1273
   192 347A:1294   193 347A:12B5   194 347A:12D6   195 347A:12DE
   196 347A:12E6   197 347A:12FC   199 347A:130A   200 347A:1320
   201 347A:132E   202 347A:1344   204 347A:1352   205 347A:1368
   206 347A:1376   207 347A:13B0   208 347A:13C3   209 347A:13DA
   210 347A:13E9   211 347A:13FF   213 347A:1409   214 347A:1417
   215 347A:1438   216 347A:1459   217 347A:147A   218 347A:1482
   219 347A:148A   220 347A:14A0   222 347A:14AE   223 347A:14C4
   224 347A:14D2   225 347A:14E8   227 347A:14F6   228 347A:150C
   229 347A:151A   230 347A:1524   231 347A:152D   232 347A:1537
   233 347A:1541   235 347A:155E   238 347A:1620   241 347A:167F
   242 347A:168A   247 347A:16A5   248 347A:171B   249 347A:1790
   255 347A:17A6   257 347A:17BC   258 347A:17C4   262 347A:17CF
   263 347A:17DA   264 347A:17F2   265 347A:17FB   267 347A:1806
   268 347A:1830   269 347A:185C   270 347A:1870   275 347A:188B
   276 347A:18AD   277 347A:18D9   278 347A:1937   280 347A:1956
   281 347A:1975   282 347A:19D1   284 347A:19F0   285 347A:1A0F
   286 347A:1A27   288 347A:1A39   290 347A:1A56   293 347A:1B18
   296 347A:1B79   297 347A:1B84   298 347A:1B9C   299 347A:1BB4
   302 347A:1BB7   303 347A:1C2D   304 347A:1CA2   310 347A:1CB8
   312 347A:1CCE   313 347A:1CD6   317 347A:1CE1   318 347A:1CEC
   319 347A:1D04   320 347A:1D1C   321 347A:1D25   323 347A:1D30
   324 347A:1D5A   325 347A:1D86   326 347A:1DA0   331 347A:1DB2
   332 347A:1DD4   333 347A:1E00   334 347A:1E5E   336 347A:1E7D
   337 347A:1E9C   338 347A:1EF8   340 347A:1F17   341 347A:1F36
   342 347A:1F4E   344 347A:1F60   345 347A:1F9E   346 347A:1FDE
   347 347A:2038   348 347A:2092   349 347A:20A0   350 347A:20AC
   351 347A:20EA   352 347A:2103   353 347A:2141   354 347A:215A
   355 347A:2166   356 347A:2170   358 347A:2172   360 347A:2194
   362 347A:2198   366 347A:219D   367 347A:21EF   368 347A:2243
   369 347A:225D   370 347A:226F   371 347A:2281   373 347A:2285
   376 347A:228D   377 347A:22DF   378 347A:2333   379 347A:234D
   381 347A:236A   382 347A:23BA   384 347A:23E1   385 347A:2408
   386 347A:2462   388 347A:2481   389 347A:24A0   392 347A:24B1
   393 347A:24C3   395 347A:24E0   396 347A:2530   398 347A:2557
   399 347A:257E   400 347A:25D8   402 347A:25F7   403 347A:2616
   404 347A:2628   406 347A:262A   407 347A:263C   408 347A:2640
   415 347A:2648   416 347A:2672   417 347A:269E   418 347A:26CA
   419 347A:26F6   420 347A:2750   423 347A:275A   425 347A:27FB
   426 347A:2811   428 347A:2825   430 347A:2830   431 347A:2888
   434 347A:2892   436 347A:2933   437 347A:2949   439 347A:295D
   441 347A:2968   442 347A:29B3
Line numbers for cnccikrg.obj(..\cncci\cnccikrg.cpp) segment CNCCIKRG_TEXT

    16 3715:0007    39 3715:0010    40 3715:001A    41 3715:0024
    42 3715:0062    44 3715:00A2    45 3715:00D2    46 3715:00DC
    47 3715:00E9    49 3715:00F0    50 3715:00F5    51 3715:011D
    53 3715:0124    54 3715:0129    56 3715:013E    57 3715:0156
    58 3715:0158    60 3715:0170    61 3715:01A6    62 3715:01BE
    63 3715:01C7    66 3715:01DC    67 3715:01F6    72 3715:0209
    73 3715:0223    78 3715:0237    79 3715:025F    81 3715:027E
    82 3715:029A    83 3715:02BB    84 3715:02EB    87 3715:02F7
    88 3715:0309    90 3715:032B    92 3715:0367    94 3715:039F
    95 3715:03FB    99 3715:0434   100 3715:04A6   102 3715:0524
   103 3715:054E   104 3715:0578   105 3715:05A4   106 3715:05CD
   107 3715:05F6   108 3715:0615   109 3715:0635   111 3715:0695
   112 3715:06A4   115 3715:07FA   116 3715:0824   119 3715:0853
   121 3715:087C   122 3715:08A6   123 3715:08C6   124 3715:0932
   125 3715:0971   126 3715:099C   128 3715:09C6   131 3715:09F0
   133 3715:0A19   134 3715:0A43   135 3715:0A63   136 3715:0ACF
   137 3715:0B0E   138 3715:0B39   140 3715:0B63   143 3715:0B8D
   144 3715:0C12   145 3715:0C5D   146 3715:0C98   147 3715:0CD4
   148 3715:0D18   151 3715:0D5E   152 3715:0DC6   155 3715:0DC9
   156 3715:0E1B   158 3715:0E71   160 3715:0F39   161 3715:0F5C
   162 3715:0F6B   164 3715:0FA8   165 3715:0FAF   168 3715:0FB9
   170 3715:0FF5   171 3715:0FFC   175 3715:1005   176 3715:1026
   178 3715:1049   180 3715:10F5   181 3715:1118   182 3715:1127
   184 3715:1164   185 3715:116B   188 3715:1175   190 3715:11B1
   191 3715:11B8   195 3715:11C1   196 3715:11E2   198 3715:1205
   199 3715:120C   201 3715:1213   203 3715:121A   204 3715:121D
   205 3715:1220   207 3715:1222   208 3715:1229   211 3715:1230
   212 3715:1233   214 3715:1236   215 3715:123D   217 3715:1248
   219 3715:124F   220 3715:1252   221 3715:1258   223 3715:125A
   224 3715:1261   227 3715:126C   228 3715:126F   230 3715:1275
   232 3715:1296   233 3715:1301   234 3715:1366   235 3715:13B9
   236 3715:140C   238 3715:14D6   239 3715:14F9   241 3715:15C3
   243 3715:15E8   244 3715:1652   245 3715:1689   246 3715:16F3
   247 3715:172A   248 3715:1744   249 3715:1760   250 3715:1768
   252 3715:1774   253 3715:1789   255 3715:17A7   256 3715:17AE
   258 3715:17BA   250 3715:17C2   261 3715:17D3   262 3715:17DA
   263 3715:17DF   265 3715:17E3   267 3715:17E5   268 3715:17EA
   269 3715:1802   270 3715:1843
Line numbers for cnccikcn.obj(..\cncci\cnccikcn.cpp) segment CNCCIKCN_TEXT

    10 3899:0006    17 3899:000F    18 3899:0019    20 3899:0023
    21 3899:009B    24 3899:00A5    26 3899:00C0    27 3899:00E2
    33 3899:0110    35 3899:0129    37 3899:0142    38 3899:015F
    42 3899:0180    44 3899:01B4    45 3899:01CE    49 3899:01E7
    50 3899:0216    52 3899:0249    53 3899:0286    54 3899:02BF
    55 3899:02C8    56 3899:02DE    58 3899:02F8    59 3899:0310
    61 3899:0325    62 3899:033D    63 3899:033F    65 3899:0357
    66 3899:037F    67 3899:03A9    68 3899:03E8    71 3899:0482
    72 3899:04D6    73 3899:0514    76 3899:0519    79 3899:05A7
    80 3899:05E3    81 3899:062D    84 3899:0632    86 3899:064D
    87 3899:068A    88 3899:0696    92 3899:0701    94 3899:071C
    95 3899:0739    96 3899:0745    97 3899:0764    98 3899:079D
    99 3899:07C7   102 3899:07FE   105 3899:0858
Line numbers for cncciinp.obj(..\cncci\cncciinp.cpp) segment CNCCIINP_TEXT

    18 391E:000C    27 391E:0014    28 391E:0060    29 391E:00AE
    30 391E:0100    31 391E:0152    32 391E:01BE    33 391E:01DC
    35 391E:02A2    36 391E:02BE    37 391E:02DB    38 391E:0321
    39 391E:0369    40 391E:03C3    42 391E:03EF    43 391E:0441
    44 391E:0499    46 391E:04C5    47 391E:0517    48 391E:0533
    58 391E:0537    64 391E:053F    65 391E:058B    66 391E:05D9
    67 391E:0635    69 391E:0647    70 391E:0657    71 391E:06A7
    72 391E:06F9    73 391E:0765    74 391E:0783    76 391E:0849
    77 391E:088F    78 391E:08D7    79 391E:0931    81 391E:095D
    82 391E:09AF    83 391E:0A07    85 391E:0A33    86 391E:0A85
    87 391E:0AA1    88 391E:0AAD    89 391E:0AC5    90 391E:0AD3
    92 391E:0AE1    94 391E:0AE5   106 391E:0AED   107 391E:0AF2
   109 391E:0AF7   110 391E:0B00   111 391E:0B09   112 391E:0B12
   113 391E:0B1B   118 391E:0C3E   120 391E:0C92   121 391E:0CD1
   126 391E:0DF4   128 391E:0E48   129 391E:0E87   131 391E:0E93
   132 391E:0E9E   133 391E:0EB6   135 391E:0ECE   137 391E:0EF3
   138 391E:0F06   140 391E:0F21   141 391E:0F4F   142 391E:0F60
   143 391E:0F6B   145 391E:0F7C   148 391E:0F80   152 391E:0F88
   153 391E:0F8D   154 391E:0F92   155 391E:0F97   156 391E:0F9C
   163 391E:0FA1   165 391E:1049   166 391E:1058   168 391E:1102
   169 391E:1111   175 391E:127F   181 391E:13E5   182 391E:13EA
   188 391E:1556   194 391E:16BC   197 391E:16C1   199 391E:16C9
   201 391E:1737   202 391E:1746   204 391E:175D   211 391E:180D
   214 391E:18B0   217 391E:18B5   219 391E:18BD   221 391E:192B
   222 391E:193A   224 391E:1951   231 391E:1A01   234 391E:1AA4
   237 391E:1AA9   239 391E:1AB5   241 391E:1ABB   242 391E:1AC6
   243 391E:1AD7   244 391E:1AE8   248 391E:1AEA   249 391E:1AEF
   250 391E:1AF7   251 391E:1B0A   253 391E:1B1E   260 391E:1B32
   261 391E:1B35   266 391E:1B39   276 391E:1B41   277 391E:1B4D
   278 391E:1B59   280 391E:1B71   281 391E:1B82   282 391E:1B92
   283 391E:1BB7   286 391E:1C92   290 391E:1CAA   291 391E:1CC3
   292 391E:1CDF   293 391E:1CF2   294 391E:1D14   295 391E:1D2C
   296 391E:1D44   301 391E:1D61   302 391E:1DE2   303 391E:1E18
   304 391E:1E2E   307 391E:1E59   308 391E:1E84   309 391E:1EAF
   312 391E:1EC7
Line numbers for cnccieqv.obj(..\cncci\cnccieqv.cpp) segment CNCCIEQV_TEXT

    27 3B0A:000B    31 3B0A:0013    33 3B0A:003E    39 3B0A:00B4
    40 3B0A:00FA    41 3B0A:0110    42 3B0A:011D    43 3B0A:0120
    47 3B0A:0188    49 3B0A:01C5    51 3B0A:01D9    53 3B0A:020E
    54 3B0A:022C    59 3B0A:0296    60 3B0A:02E8    64 3B0A:0321
    65 3B0A:0339    68 3B0A:039D    70 3B0A:03AE    72 3B0A:03C2
    73 3B0A:03F8    74 3B0A:041A    49 3B0A:0447    78 3B0A:045F
    79 3B0A:047B    80 3B0A:048D    82 3B0A:04A8    85 3B0A:04BC
    86 3B0A:04D4    88 3B0A:04D7    89 3B0A:04DC    90 3B0A:04F7
    92 3B0A:0503    94 3B0A:053C    95 3B0A:054C    90 3B0A:0570
    99 3B0A:057E   104 3B0A:0596   107 3B0A:059A   109 3B0A:05A2
   111 3B0A:05C6   114 3B0A:05DA   117 3B0A:05E6   120 3B0A:05F7
   123 3B0A:0607   124 3B0A:0653   125 3B0A:06A1   127 3B0A:06C9
   128 3B0A:06D5   129 3B0A:0705   131 3B0A:0739   133 3B0A:075D
   134 3B0A:0769   136 3B0A:0775   137 3B0A:078B   138 3B0A:0790
   142 3B0A:0794   155 3B0A:079C   156 3B0A:07EC   157 3B0A:083E
   158 3B0A:0854   160 3B0A:0894   161 3B0A:089D   163 3B0A:08CD
   165 3B0A:08DA   167 3B0A:08F0   168 3B0A:0902   172 3B0A:090A
   173 3B0A:0919   177 3B0A:0921   179 3B0A:0930   181 3B0A:0946
   182 3B0A:094D   186 3B0A:095F   187 3B0A:0966   194 3B0A:097B
   196 3B0A:09AB   198 3B0A:09B8   200 3B0A:09CE   201 3B0A:09D5
   205 3B0A:09E3   206 3B0A:09EA   210 3B0A:09FB   212 3B0A:0A0A
   214 3B0A:0A20   215 3B0A:0A32   219 3B0A:0A3C   229 3B0A:0A49
   230 3B0A:0A65   231 3B0A:0A7A   233 3B0A:0A8A   234 3B0A:0A99
   235 3B0A:0ABD   236 3B0A:0AE1   238 3B0A:0AF2   240 3B0A:0B1E
   241 3B0A:0B29   244 3B0A:0B34   246 3B0A:0B60   247 3B0A:0B68
   250 3B0A:0B76   252 3B0A:0BA2   253 3B0A:0BAA   256 3B0A:0BB5
   258 3B0A:0BE5   259 3B0A:0BF0   263 3B0A:0BFA   265 3B0A:0C09
   267 3B0A:0C35   268 3B0A:0C3D   271 3B0A:0C4B   273 3B0A:0C77
   274 3B0A:0C82   277 3B0A:0C8D   279 3B0A:0CB9   280 3B0A:0CC4
   283 3B0A:0CCD   285 3B0A:0CF9   286 3B0A:0D01   292 3B0A:0D1A
   293 3B0A:0D6A   294 3B0A:0DBC   295 3B0A:0E0E   296 3B0A:0E62
   297 3B0A:0E66   299 3B0A:0E6E   301 3B0A:0E7C   303 3B0A:0E95
   304 3B0A:0EAB   299 3B0A:0EAD   307 3B0A:0EC4   309 3B0A:0EC8
   311 3B0A:0ED0   313 3B0A:0EE4   315 3B0A:0F26   317 3B0A:0F2F
   319 3B0A:0F43   321 3B0A:0F85   323 3B0A:0F8E   326 3B0A:0F92
   330 3B0A:0F9B   331 3B0A:0FA2   340 3B0A:0FB7   342 3B0A:0FEC
   344 3B0A:1016   345 3B0A:1036   346 3B0A:1058   347 3B0A:107F
   338 3B0A:10A1   349 3B0A:10B5   351 3B0A:10C9   352 3B0A:10E3
   354 3B0A:10FB   357 3B0A:113E   359 3B0A:115D   352 3B0A:116E
   362 3B0A:1182   363 3B0A:1187   364 3B0A:118E   365 3B0A:1195
   366 3B0A:11AB   369 3B0A:11E0   370 3B0A:11F6   371 3B0A:11FC
   372 3B0A:1202   373 3B0A:1244   374 3B0A:125A   376 3B0A:1260
   377 3B0A:1264   379 3B0A:127B   380 3B0A:1286   381 3B0A:12A2
   382 3B0A:12BC   383 3B0A:12D9   385 3B0A:12DF   365 3B0A:12E3
   387 3B0A:12F7   390 3B0A:131E   391 3B0A:1327
Line numbers for cnccict.obj(..\cncci\cnccict.cpp) segment CNCCICT_TEXT

    16 3C3C:000B    25 3C3C:0013    26 3C3C:001D    28 3C3C:0027
    32 3C3C:00A5    34 3C3C:00DD    35 3C3C:0120    39 3C3C:0163
    40 3C3C:0191    42 3C3C:01C3    43 3C3C:0214    44 3C3C:022A
    45 3C3C:023F    46 3C3C:0249    48 3C3C:024D    57 3C3C:0255
    59 3C3C:025F    63 3C3C:0297    64 3C3C:02B6    65 3C3C:02D5
    66 3C3C:0326    67 3C3C:0335    68 3C3C:034A    70 3C3C:0354
Line numbers for cnccicrs.obj(..\cncci\cnccicrs.cpp) segment CNCCICRS_TEXT

    24 3C71:0008    28 3C71:0038    30 3C71:0060    31 3C71:006C
    32 3C71:007A    34 3C71:007F    36 3C71:0093    37 3C71:009D
    38 3C71:00B2    40 3C71:00B7    42 3C71:00CB    43 3C71:00D6
    46 3C71:00E0    48 3C71:011C    49 3C71:0128    50 3C71:0136
    52 3C71:013B    54 3C71:0150    55 3C71:015A    56 3C71:0175
    58 3C71:0179    60 3C71:018E    61 3C71:0199    62 3C71:01B2
    65 3C71:01B6    66 3C71:01DF    68 3C71:01F5    71 3C71:0205
    78 3C71:020D    79 3C71:0219    80 3C71:0225    82 3C71:023D
    83 3C71:02BE    84 3C71:02F4    87 3C71:030C    88 3C71:0322
    91 3C71:0360    92 3C71:037C    93 3C71:039E    94 3C71:03B7
    99 3C71:03D2   100 3C71:03E3   101 3C71:03F3   103 3C71:04F3
   104 3C71:0509   106 3C71:0535   108 3C71:054D   109 3C71:05B1
   110 3C71:05CD   113 3C71:05D2   114 3C71:05EE   116 3C71:064A
   118 3C71:06A6   119 3C71:06BE   122 3C71:06D8   128 3C71:06DC
   144 3C71:06E4   145 3C71:06ED   146 3C71:06F6   147 3C71:06FF
   148 3C71:0708   150 3C71:0718   151 3C71:073B   152 3C71:0760
   154 3C71:07A4   155 3C71:07E8   157 3C71:085C   160 3C71:0875
   162 3C71:0888   163 3C71:089E   169 3C71:08B2   170 3C71:08C8
   176 3C71:08DC   182 3C71:08F4   184 3C71:0907   185 3C71:091D
   191 3C71:0931   192 3C71:0947   198 3C71:095B   200 3C71:096E
   207 3C71:0986   208 3C71:099C   215 3C71:09B0   218 3C71:09B3
   219 3C71:09D6   220 3C71:09FB   221 3C71:0A20   224 3C71:0A45
   226 3C71:0AF3   229 3C71:0B0C   231 3C71:0B1F   232 3C71:0B35
   238 3C71:0B49   245 3C71:0B61   247 3C71:0B74   248 3C71:0B8A
   254 3C71:0B9E   261 3C71:0BB4   263 3C71:0BC7   264 3C71:0BDB
   270 3C71:0BEE   271 3C71:0C02   277 3C71:0C15   279 3C71:0C28
   286 3C71:0C3E   287 3C71:0C52   296 3C71:0C6F   297 3C71:0C7B
   298 3C71:0CF9   299 3C71:0D33   300 3C71:0D4F   301 3C71:0D6C
   302 3C71:0DAC   303 3C71:0DEE   304 3C71:0E02   306 3C71:0E23
   307 3C71:0E4C   308 3C71:0E60   310 3C71:0E81   311 3C71:0EAA
   313 3C71:0F1C   314 3C71:0F3C   316 3C71:0FB0   318 3C71:0FD0
   328 3C71:10C4   330 3C71:111A   331 3C71:111F   332 3C71:1123
   333 3C71:112C   337 3C71:11CC   339 3C71:123E   341 3C71:124F
   342 3C71:1258   347 3C71:12F8   349 3C71:136A   353 3C71:137B
   357 3C71:1390   360 3C71:141F   362 3C71:1424   363 3C71:1426
   366 3C71:14B9   372 3C71:14BF   375 3C71:154E   377 3C71:1553
   378 3C71:1555   381 3C71:15E4   385 3C71:15EB   387 3C71:15F0
   394 3C71:15F8   395 3C71:15FD   402 3C71:1612   404 3C71:1619
   406 3C71:161F   407 3C71:165A   411 3C71:165C   412 3C71:1661
   413 3C71:1674   423 3C71:169C   424 3C71:16AD   425 3C71:16D0
   428 3C71:170E   429 3C71:1721   431 3C71:173C   432 3C71:176A
   433 3C71:17BB   434 3C71:17E4   435 3C71:1835   437 3C71:185E
   443 3C71:1872   465 3C71:187A   467 3C71:197B   469 3C71:1991
   471 3C71:19A5   472 3C71:19BB   478 3C71:19F9   479 3C71:1A27
   480 3C71:1AA8   481 3C71:1ADE   484 3C71:1AF6   485 3C71:1B0C
   488 3C71:1B25   489 3C71:1B4B   490 3C71:1B5A   496 3C71:1B6E
   497 3C71:1BA1   498 3C71:1BC3   500 3C71:1BD9   501 3C71:1BED
   502 3C71:1C6E   503 3C71:1CA4   506 3C71:1CBC   507 3C71:1CD2
   510 3C71:1CEB   511 3C71:1D11   512 3C71:1D20   517 3C71:1D34
   518 3C71:1D40   519 3C71:1DBD   520 3C71:1DDA   521 3C71:1E05
   522 3C71:1E3A   523 3C71:1E50   525 3C71:1E69   527 3C71:1E7F
   528 3C71:1EA4   529 3C71:1EC0   532 3C71:1EC5   533 3C71:1EFC
   534 3C71:1F33   535 3C71:1F4B   539 3C71:1F65
Line numbers for cncctok.obj(..\cnccamp\cncctok.cpp) segment CNCCTOK_TEXT

    25 3E67:0009    36 3E67:0011    37 3E67:001D    38 3E67:0029
    39 3E67:0035    40 3E67:0041    41 3E67:0046    42 3E67:0052
    43 3E67:0074    45 3E67:0084    46 3E67:0099    47 3E67:00A5
    48 3E67:00AA    52 3E67:00E9    53 3E67:0103    54 3E67:0107
    56 3E67:0112    62 3E67:0157    63 3E67:0173    66 3E67:0186
    67 3E67:0193    71 3E67:01CD    73 3E67:01E1    74 3E67:01F5
    75 3E67:0201    76 3E67:0210    66 3E67:0235    82 3E67:024C
    83 3E67:0252    84 3E67:025E    85 3E67:0269    86 3E67:0275
    47 3E67:0277    89 3E67:0282    90 3E67:028D    93 3E67:028F
    94 3E67:0299    96 3E67:02BB    97 3E67:02C2    93 3E67:02E7
   101 3E67:02F4   102 3E67:0304   103 3E67:030B   105 3E67:032B
   106 3E67:0334   107 3E67:034C   102 3E67:0364   110 3E67:036D
   111 3E67:0376   112 3E67:037B   113 3E67:0387   114 3E67:0390
   115 3E67:039A   116 3E67:03A9   117 3E67:03BA   115 3E67:03E0
   118 3E67:03F2   120 3E67:0404   122 3E67:042E   123 3E67:0439
   124 3E67:0445
Line numbers for cnccstr.obj(..\cnccamp\cnccstr.cpp) segment CNCCSTR_TEXT

    26 3EAB:0009    32 3EAB:0011    33 3EAB:001D    34 3EAB:002B
    35 3EAB:0038    37 3EAB:0046    38 3EAB:0053    39 3EAB:005D
    40 3EAB:0081    41 3EAB:008D    43 3EAB:008F    44 3EAB:00CA
    45 3EAB:00CF    46 3EAB:00D4    51 3EAB:0128    52 3EAB:0133
    53 3EAB:013E    54 3EAB:014A    55 3EAB:014F    57 3EAB:0152
    59 3EAB:0182    60 3EAB:018D    61 3EAB:0192    62 3EAB:019E
    63 3EAB:01A3    64 3EAB:01CA    62 3EAB:01D4    65 3EAB:01DD
    66 3EAB:01FD    67 3EAB:0208    68 3EAB:0213    69 3EAB:0218
    72 3EAB:0224    73 3EAB:024E    76 3EAB:025B    77 3EAB:0266
    78 3EAB:0272    80 3EAB:0277    81 3EAB:0283    84 3EAB:0287
    87 3EAB:0289    88 3EAB:0297    90 3EAB:02B1    92 3EAB:02BD
    93 3EAB:02CA    95 3EAB:02DE    96 3EAB:02EA    98 3EAB:02FC
Line numbers for cnccrrdp.obj(..\cnccamp\cnccrrdp.cpp) segment CNCCRRDP_TEXT

    13 3EDA:000F    15 3EDA:0017    23 3EDA:0028    32 3EDA:0036
    33 3EDA:0044    34 3EDA:0052    35 3EDA:0060    36 3EDA:006E
    37 3EDA:007C    40 3EDA:008A    41 3EDA:00A5    42 3EDA:00B3
    43 3EDA:00CE    44 3EDA:00E9    45 3EDA:0104    48 3EDA:0112
    50 3EDA:0120    51 3EDA:012E    52 3EDA:0141    53 3EDA:0156
    54 3EDA:016B    55 3EDA:017B    17 3EDA:018D    57 3EDA:01A2
    58 3EDA:01AD    59 3EDA:01B9    60 3EDA:01C6    62 3EDA:01CD
    63 3EDA:01DB    64 3EDA:01E9    65 3EDA:01F7    66 3EDA:0205
    67 3EDA:0213    68 3EDA:0221    69 3EDA:022F    70 3EDA:023D
    71 3EDA:024B    60 3EDA:0259    58 3EDA:0267   103 3EDA:0279
   104 3EDA:0290   105 3EDA:02A7   106 3EDA:02BE   107 3EDA:02D5
   108 3EDA:02EC   109 3EDA:0303   110 3EDA:031A   111 3EDA:0331
   112 3EDA:0348   113 3EDA:035F   114 3EDA:0376   115 3EDA:038D
   116 3EDA:03A4   117 3EDA:03BB   118 3EDA:03D2   119 3EDA:03E9
   120 3EDA:0400   121 3EDA:0417   122 3EDA:042E   123 3EDA:0445
   124 3EDA:045C   125 3EDA:0473   126 3EDA:048A   127 3EDA:04A1
   128 3EDA:04AC   129 3EDA:04B7   130 3EDA:04CE   135 3EDA:04E5
   136 3EDA:04F4   137 3EDA:0504   138 3EDA:0515   139 3EDA:0525
   140 3EDA:0536   141 3EDA:0546   142 3EDA:0557   143 3EDA:0569
   144 3EDA:056C
Line numbers for cnccrm.obj(..\cnccamp\cnccrm.cpp) segment CNCCRM_TEXT

    20 3F31:0000    43 3F31:0008    44 3F31:0018    45 3F31:0026
    46 3F31:0034    47 3F31:0044    48 3F31:0054    49 3F31:0064
    50 3F31:0072    51 3F31:0080    52 3F31:0090    53 3F31:00A0
    54 3F31:00A9    53 3F31:00BB    55 3F31:00C6    57 3F31:00CF
    58 3F31:00E1    59 3F31:00F3    60 3F31:0105    61 3F31:0117
    55 3F31:0129    63 3F31:013F    64 3F31:014B    63 3F31:0163
    65 3F31:0185    66 3F31:018C    65 3F31:019E    67 3F31:01A9
    68 3F31:01B7    69 3F31:01C9    70 3F31:01DB    71 3F31:01E9
    72 3F31:01F7    73 3F31:0205    74 3F31:020C    73 3F31:021E
    75 3F31:0229    77 3F31:022C    78 3F31:023C    79 3F31:024C
    80 3F31:025A    81 3F31:0266    82 3F31:0272    83 3F31:0282
    84 3F31:0292    85 3F31:029B    84 3F31:02AD    86 3F31:02B8
    88 3F31:02C1    89 3F31:02D3    90 3F31:02E3    91 3F31:02F3
    92 3F31:0303    86 3F31:0313    94 3F31:0329    95 3F31:0330
    94 3F31:0342    96 3F31:034D    97 3F31:0359    96 3F31:0371
    98 3F31:0393    99 3F31:039F   100 3F31:03B1   101 3F31:03C3
   102 3F31:03CF   103 3F31:03DB   104 3F31:03E7   105 3F31:03F3
   106 3F31:03FF   107 3F31:0406   108 3F31:0418   106 3F31:0424
   111 3F31:042F
Line numbers for cnccref.obj(..\cnccamp\cnccref.cpp) segment CNCCREF_TEXT

    25 3F74:0003    35 3F74:000B    36 3F74:0034    37 3F74:0040
    38 3F74:0045    40 3F74:0055    41 3F74:006A    42 3F74:0076
    43 3F74:007B    48 3F74:00CC    49 3F74:00E6    50 3F74:00EA
    52 3F74:00F5    58 3F74:013A    59 3F74:0156    62 3F74:016B
    63 3F74:0173    67 3F74:01AB    69 3F74:01BF    70 3F74:01D3
    71 3F74:01EE    62 3F74:01F0    75 3F74:0203    77 3F74:0209
    78 3F74:0226    42 3F74:0228    81 3F74:0233    82 3F74:023E
    85 3F74:0240    86 3F74:0245    88 3F74:0267    85 3F74:0282
    90 3F74:028B    92 3F74:02AB    93 3F74:02C7    94 3F74:02E5
    95 3F74:02EF    94 3F74:0323    96 3F74:0332    97 3F74:0350
    98 3F74:0371   100 3F74:037C   102 3F74:037E   103 3F74:038A
   104 3F74:0395   105 3F74:03A1   106 3F74:03AC   108 3F74:03B7
   109 3F74:03C3
Line numbers for cnccoutk.obj(..\cnccamp\cnccoutk.cpp) segment CNCCOUTK_TEXT

    25 3FB0:0007    34 3FB0:000F    35 3FB0:0031    36 3FB0:003D
    37 3FB0:005B    38 3FB0:006A    39 3FB0:007A    40 3FB0:008F
    41 3FB0:009B    42 3FB0:00A0    45 3FB0:00CA    46 3FB0:00E4
    47 3FB0:00E8    49 3FB0:00F3    55 3FB0:0138    56 3FB0:0154
    59 3FB0:0167    60 3FB0:016E    64 3FB0:01A6    66 3FB0:01BA
    67 3FB0:01CE    59 3FB0:01DA    72 3FB0:01EB    73 3FB0:01F1
    74 3FB0:01FD    75 3FB0:0208    76 3FB0:0214    77 3FB0:021F
    41 3FB0:0221    80 3FB0:022C    81 3FB0:0237    83 3FB0:0239
    85 3FB0:023E    87 3FB0:0260    83 3FB0:026A    91 3FB0:0273
    93 3FB0:02A3    94 3FB0:02B2    95 3FB0:02C4    96 3FB0:02D6
    97 3FB0:02E2    98 3FB0:02EE   101 3FB0:02F6   102 3FB0:0300
   103 3FB0:030F   104 3FB0:0319   106 3FB0:034C   107 3FB0:0365
   108 3FB0:037F   103 3FB0:0386   111 3FB0:0393   112 3FB0:039F
   113 3FB0:03B4   117 3FB0:03C0   118 3FB0:03CF   119 3FB0:03D9
   118 3FB0:03EA   121 3FB0:0400   122 3FB0:0405   123 3FB0:0410
   124 3FB0:041C   125 3FB0:0428   126 3FB0:0434   128 3FB0:0437
   129 3FB0:0443   134 3FB0:0452   135 3FB0:045C   137 3FB0:0491
   139 3FB0:04BB   141 3FB0:04E7   142 3FB0:04EE   134 3FB0:050D
   144 3FB0:051C   145 3FB0:0526   146 3FB0:0548   100 3FB0:0554
   151 3FB0:0564   153 3FB0:0580   154 3FB0:05A6   156 3FB0:05BA
   157 3FB0:05C6
Line numbers for cnccman.obj(..\cnccamp\cnccman.cpp) segment CNCCMAN_TEXT

    32 400C:000A    45 400C:0012    52 400C:001C    53 400C:0028
    56 400C:0042    57 400C:004D    58 400C:0059    59 400C:0065
    60 400C:0071    63 400C:0074    66 400C:0080    67 400C:008B
    69 400C:009A    71 400C:00C1    72 400C:00DB    74 400C:00E9
    75 400C:00F6    76 400C:0100    77 400C:0112    79 400C:0114
    80 400C:0120    81 400C:012C    83 400C:0138    84 400C:015A
    85 400C:015F    86 400C:016A    88 400C:0186    89 400C:018E
    90 400C:0197    91 400C:01A9    92 400C:01BE    93 400C:01CC
    96 400C:021B    97 400C:022C    98 400C:0236    99 400C:0248
   101 400C:0267    91 400C:0284    90 400C:029B   104 400C:02B7
   106 400C:02BA   107 400C:02C8   108 400C:02D0   109 400C:02D9
   110 400C:02DE   112 400C:0303   109 400C:030E   114 400C:0317
   117 400C:031A   118 400C:0326   119 400C:032B   120 400C:0330
   121 400C:0338   122 400C:033D   123 400C:0342   124 400C:034A
   125 400C:035B   126 400C:0379   127 400C:037C   129 400C:038A
   130 400C:038D   131 400C:0393   132 400C:03A4   134 400C:03CC
   138 400C:03CF   139 400C:03D5   141 400C:03E1   142 400C:03E4
   143 400C:03F6   144 400C:0400   145 400C:0418   146 400C:041B
   147 400C:0421   148 400C:0424   149 400C:042A   150 400C:0430
   152 400C:043C   154 400C:043F   155 400C:0442   156 400C:0453
   157 400C:0471   135 400C:0473   160 400C:049D   162 400C:04A5
   163 400C:04B2   164 400C:04BC   168 400C:04F9   170 400C:0506
   171 400C:0510   172 400C:0521   173 400C:0549   174 400C:0559
   175 400C:0571   178 400C:0581   179 400C:058C   182 400C:05A1
   183 400C:05B4   185 400C:05CE   188 400C:05D9   189 400C:05DE
   190 400C:05E3   191 400C:05E8   194 400C:05EB   195 400C:05FA
   197 400C:0608   199 400C:066B   201 400C:0676   203 400C:0678
   207 400C:06E7   208 400C:06F2   210 400C:06F4   212 400C:06FC
   213 400C:071A   214 400C:071D   215 400C:0721   216 400C:072F
   218 400C:0735   219 400C:0739   220 400C:0749   223 400C:0761
   225 400C:0771   229 400C:0779   230 400C:077F   233 400C:0782
   235 400C:0787   242 400C:07F7   243 400C:080B   244 400C:080E
   245 400C:0826   247 400C:082E   248 400C:0839   250 400C:0840
   251 400C:0843   252 400C:085C   253 400C:0878   254 400C:0886
   256 400C:089A   245 400C:08CB   258 400C:08E0   262 400C:08E3
   263 400C:08EA   264 400C:08F4   265 400C:0902   268 400C:0915
   269 400C:0923   271 400C:094A   233 400C:0957   276 400C:0962
   277 400C:0968   278 400C:0972   280 400C:0974   281 400C:0985
   123 400C:098A   284 400C:0995   285 400C:09A0   286 400C:09B1
   287 400C:09BB   290 400C:09D9   291 400C:09E5   292 400C:09F1
   293 400C:09FE   294 400C:0A10   295 400C:0A2E   300 400C:0A3B
   302 400C:0A47   303 400C:0A4C   306 400C:0A67   307 400C:0A74
   308 400C:0A85   311 400C:0AA8   306 400C:0AB9   312 400C:0AC9
   314 400C:0ACC   315 400C:0AD9   316 400C:0AEA   319 400C:0B0D
   314 400C:0B1E   320 400C:0B2E   322 400C:0B31   323 400C:0B3E
   324 400C:0B4F   327 400C:0B72   322 400C:0B83   328 400C:0B93
   330 400C:0B96   331 400C:0BA3   332 400C:0BB4   335 400C:0BD7
   330 400C:0BE8   336 400C:0BF8   338 400C:0BFA   339 400C:0C09
   340 400C:0C1A   343 400C:0C42   338 400C:0C53   344 400C:0C65
   347 400C:0C77   349 400C:0C7A   351 400C:0C86   352 400C:0C8D
   353 400C:0C98   354 400C:0C9E   355 400C:0CA3   356 400C:0CB9
   357 400C:0CCB   359 400C:0CE3   360 400C:0CEE   361 400C:0CF4
   362 400C:0CF9   363 400C:0D0F   364 400C:0D21   368 400C:0D39
   369 400C:0D43   370 400C:0D4A   371 400C:0D5D   372 400C:0D76
   374 400C:0D84   369 400C:0D8C   376 400C:0D97   379 400C:0DC7
   381 400C:0DD5   382 400C:0DEF   384 400C:0DFB   385 400C:0E08
   386 400C:0E1A   387 400C:0E26   391 400C:0E32   392 400C:0E3E
   394 400C:0E4A   397 400C:0E52   398 400C:0E74   399 400C:0E83
   400 400C:0E92   401 400C:0EA0   405 400C:0F03   408 400C:0F7A
   409 400C:0F85   410 400C:0F8D   412 400C:0F8F   413 400C:0F9D
   415 400C:0FB0   417 400C:0FD7
Line numbers for cnccfrs.obj(..\cnccamp\cnccfrs.cpp) segment CNCCFRS_TEXT

    23 4109:000B    26 4109:0013    27 4109:002E    28 4109:003C
    29 4109:0047    30 4109:0052    31 4109:005D    33 4109:006B
    34 4109:008A    35 4109:009F    36 4109:00C7    37 4109:00E5
    38 4109:010D    39 4109:012B    40 4109:0153    41 4109:0171
    42 4109:0190    43 4109:01BA    31 4109:01D8    46 4109:01E9
    47 4109:0203    48 4109:0211    49 4109:022B    50 4109:0239
    51 4109:0253    52 4109:0261    53 4109:027B    54 4109:0289
    55 4109:02A5    56 4109:02BE    57 4109:02D7    58 4109:02F0
    59 4109:0309    60 4109:0312
Line numbers for cnccauto.obj(..\cnccamp\cnccauto.cpp) segment CNCCAUTO_TEXT

    46 413A:001D    65 413A:0025    66 413A:0030    67 413A:003C
    69 413A:004C    70 413A:0057    71 413A:0065    72 413A:0071
    73 413A:007C    74 413A:0088    75 413A:0094    76 413A:00A0
    79 413A:00A3    80 413A:00A8    81 413A:00AD    82 413A:00BC
    84 413A:00C3    87 413A:00ED    89 413A:0100   101 413A:0111
   102 413A:0116    92 413A:0124    93 413A:0129    95 413A:012C
    96 413A:0131    98 413A:0134    99 413A:0139   106 413A:013C
   108 413A:0144   110 413A:015D   111 413A:0163   112 413A:016D
   115 413A:017D   117 413A:018C   118 413A:0192   120 413A:01A4
   123 413A:01B0   124 413A:01BA   113 413A:01C0   126 413A:0220
   127 413A:023C   128 413A:024A   129 413A:0250   130 413A:0255
   131 413A:0258   133 413A:025B   134 413A:0260   135 413A:0266
   138 413A:027C   140 413A:028B   141 413A:0291   143 413A:029F
   146 413A:02AC   147 413A:02B7   136 413A:02BD   149 413A:031D
   150 413A:0339   151 413A:033F   152 413A:0344   153 413A:0347
   155 413A:034A   156 413A:034F   157 413A:0355   161 413A:036B
   163 413A:038B   164 413A:0391   166 413A:039F   170 413A:03AC
   171 413A:03B7   158 413A:03BD   173 413A:041D   174 413A:0439
   175 413A:043F   176 413A:0444   177 413A:0447   183 413A:0449
   184 413A:045C    83 413A:0476   187 413A:0481   189 413A:048E
   190 413A:0499   191 413A:04A4   192 413A:04B0   193 413A:04BC
   195 413A:04C8   196 413A:04F8   197 413A:04FE   198 413A:0503
   200 413A:0509   201 413A:0517   203 413A:0548   205 413A:054E
   206 413A:0558   207 413A:056E   208 413A:0578   209 413A:058B
   212 413A:0598   213 413A:05A4   214 413A:05AA   215 413A:05B4
   216 413A:05C5   217 413A:05F3   219 413A:05F5   220 413A:0601
   222 413A:060E   223 413A:061D   224 413A:062B   226 413A:0638
   234 413A:0645   235 413A:064A   236 413A:064F   239 413A:0679
   240 413A:0684   241 413A:068F   242 413A:069B   243 413A:06A7
   244 413A:06B2   247 413A:06B5   248 413A:06D6   249 413A:06F6
   250 413A:0702   251 413A:072A   252 413A:074D   253 413A:0757
   254 413A:0781   255 413A:07A4   256 413A:07B0   262 413A:07BD
   264 413A:07E4   265 413A:07EF   266 413A:07FA   267 413A:0806
   268 413A:0812   269 413A:081E   271 413A:0821   272 413A:082D
   273 413A:0858   274 413A:0863   275 413A:086E   276 413A:0879
   277 413A:0885   278 413A:0891   279 413A:089D   280 413A:08A2
   282 413A:08DA   283 413A:08ED   285 413A:0900   292 413A:090F
   294 413A:091F   295 413A:0924   296 413A:0945   297 413A:0965
   298 413A:0992   299 413A:099E   300 413A:09AD   301 413A:09B2
   303 413A:09B5   304 413A:09C5   306 413A:09D4   307 413A:09DB
   309 413A:0A12   310 413A:0A38   306 413A:0A5F   314 413A:0A6C
   315 413A:0A9A   316 413A:0AD3   318 413A:0B0C   320 413A:0B1A
   321 413A:0B1D   322 413A:0B23   305 413A:0B28   324 413A:0B38
   325 413A:0B44   326 413A:0B60   324 413A:0B72   328 413A:0B96
   330 413A:0BC0   331 413A:0BC8   333 413A:0C10   334 413A:0C57
   335 413A:0C77   336 413A:0C94   338 413A:0C96   330 413A:0CDF
   341 413A:0CEA   342 413A:0CF0   343 413A:0CFA   344 413A:0D05
   345 413A:0D10   346 413A:0D1C   348 413A:0D1E   351 413A:0D2B
   352 413A:0D36   354 413A:0D60   355 413A:0D68   357 413A:0DB0
   358 413A:0DF7   359 413A:0E17   360 413A:0E34   362 413A:0E36
   354 413A:0E7F   365 413A:0E8A   366 413A:0E90   367 413A:0E9A
   368 413A:0EA5   369 413A:0EB0   370 413A:0EBC   372 413A:0EBE
   375 413A:0ECB   376 413A:0ED6   377 413A:0EE1   380 413A:0F06
   381 413A:0F15   385 413A:0F2F   386 413A:0F4B   387 413A:0F57
   392 413A:0F5E   395 413A:0FAC   400 413A:0FBF   403 413A:0FF7
   404 413A:1003   405 413A:100E   406 413A:101A
Line numbers for cncxupr.obj(..\cncdrc\cncxupr.cpp) segment CNCXUPR_TEXT

    16 423B:000E    23 423B:0016    25 423B:0038    27 423B:008E
    29 423B:00D8    32 423B:0107    33 423B:0141    49 423B:0161
    50 423B:0179    51 423B:018E    53 423B:01A0    55 423B:01B6
    57 423B:01C8    59 423B:01D8    60 423B:01FA    61 423B:0248
    63 423B:0264    64 423B:027D    65 423B:02A9    66 423B:02C5
    72 423B:0310    74 423B:0320    75 423B:0341    77 423B:0361
    78 423B:037A    80 423B:03B8    81 423B:03C7    83 423B:03F1
    84 423B:0425    92 423B:0435    94 423B:0473    96 423B:0485
    97 423B:04B0    99 423B:04FF   100 423B:050F   102 423B:0522
   105 423B:0535   108 423B:0548   110 423B:055A   112 423B:05B1
   113 423B:05C1   115 423B:05D4   118 423B:05E7   121 423B:05FA
   122 423B:060A   123 423B:0641   125 423B:0652   126 423B:0662
   127 423B:06B9   129 423B:06CA   130 423B:06EA   132 423B:0733
   133 423B:0744   138 423B:0753   139 423B:0778   142 423B:0783
   144 423B:07A2   147 423B:07C3   148 423B:07D5   150 423B:07EA
   152 423B:07F7   153 423B:0808   155 423B:080A   157 423B:0817
   159 423B:0833   160 423B:087F   164 423B:0899   165 423B:08D5
   168 423B:08F3   169 423B:0907   171 423B:0912    25 423B:0922
   175 423B:096D
Line numbers for cnctend.obj(..\cncdrc\cnctend.cpp) segment CNCTEND_TEXT

    28 42D2:0001    33 42D2:0009    35 42D2:0023    36 42D2:0041
    37 42D2:0057    38 42D2:0062    39 42D2:006D    40 42D2:0079
    41 42D2:008B    42 42D2:00AF    43 42D2:00BA    44 42D2:00C6
    45 42D2:00D1    46 42D2:00DD    47 42D2:00E9    49 42D2:00EC
    51 42D2:00FB    52 42D2:0106    53 42D2:0111    54 42D2:0121
    55 42D2:013E    56 42D2:0150    57 42D2:0162    58 42D2:0191
    60 42D2:0193    61 42D2:019E    62 42D2:01B0    68 42D2:01BC
    70 42D2:01C1    71 42D2:01C5    74 42D2:01CD    75 42D2:01ED
    77 42D2:01FC    78 42D2:0207    79 42D2:0212    80 42D2:021E
    81 42D2:0229    82 42D2:0235    83 42D2:0247    87 42D2:026E
    88 42D2:028E    89 42D2:02AB    90 42D2:02B7    92 42D2:02BA
    93 42D2:02C6    94 42D2:02D5    95 42D2:02E2    96 42D2:02ED
    97 42D2:02F9    98 42D2:0304   101 42D2:0307   102 42D2:0313
   103 42D2:031F   104 42D2:032B   105 42D2:0336   106 42D2:0344
   107 42D2:0349   108 42D2:0370   106 42D2:037C   109 42D2:0385
   110 42D2:0392   112 42D2:039E   116 42D2:03AD   117 42D2:03BA
   118 42D2:03C6   119 42D2:03D2   120 42D2:03DE   121 42D2:03E9
   123 42D2:03EC   124 42D2:0410   125 42D2:042F   126 42D2:043B
   127 42D2:0446   128 42D2:0452   130 42D2:0455   131 42D2:0461
   132 42D2:046C   133 42D2:047C   134 42D2:0487   141 42D2:04A7
   143 42D2:04D8   144 42D2:04F7   145 42D2:0503   146 42D2:050E
   147 42D2:051A   149 42D2:051D   150 42D2:0529   151 42D2:0534
   152 42D2:053F   153 42D2:054F   155 42D2:055A   156 42D2:0577
   157 42D2:0583   162 42D2:0591   165 42D2:05D2   166 42D2:05F1
   167 42D2:05FD   168 42D2:0608   169 42D2:0613   170 42D2:061F
   172 42D2:0622   173 42D2:062E   174 42D2:0639   175 42D2:0649
   176 42D2:0655   178 42D2:0660   183 42D2:066E   185 42D2:068E
   186 42D2:069B   189 42D2:06A9   190 42D2:06AE   191 42D2:06B9
   193 42D2:06C4   223 42D2:06D3   224 42D2:06DF   225 42D2:06FE
   226 42D2:0709   227 42D2:0715   230 42D2:0720   232 42D2:0723
   235 42D2:0732   236 42D2:073E   237 42D2:074B   239 42D2:0759
   240 42D2:0763   241 42D2:0775   242 42D2:0799   243 42D2:07B7
   246 42D2:07E4   247 42D2:0806   248 42D2:0811   249 42D2:081C
   250 42D2:0827   251 42D2:0833   253 42D2:0835   257 42D2:0862
   258 42D2:086C   260 42D2:087B   261 42D2:0886   262 42D2:0891
   272 42D2:0893   274 42D2:08A2   275 42D2:08AD   276 42D2:08BA
   277 42D2:08D8   278 42D2:08E3   281 42D2:08EF
Line numbers for cnctcom2.obj(..\cncdrc\cnctcom2.cpp) segment CNCTCOM2_TEXT

    29 4361:0003    33 4361:0005    34 4361:0015    35 4361:0020
    37 4361:003B    38 4361:0046    39 4361:0051    40 4361:005C
    41 4361:006A    42 4361:0075    45 4361:0078    46 4361:0083
    47 4361:008F    48 4361:009A    49 4361:00A0    50 4361:00A6
    51 4361:00B5    52 4361:00CD    53 4361:00E3    54 4361:00F7
    55 4361:0103    59 4361:0112    60 4361:0138    61 4361:0143
    62 4361:0148    70 4361:0158    72 4361:0168    73 4361:017F
    81 4361:018E    84 4361:01B0    94 4361:01CD    96 4361:01E0
    97 4361:01EA    98 4361:0211    99 4361:021C   100 4361:0227
   101 4361:023C   102 4361:024E   103 4361:025D   106 4361:025F
   111 4361:028C   112 4361:02A2   113 4361:02B5   114 4361:02CA
   115 4361:02DA   116 4361:02E6   121 4361:02F3   125 4361:0301
   126 4361:0311   127 4361:0321   128 4361:0330   129 4361:033B
   130 4361:0346   131 4361:0354   132 4361:035F   133 4361:036A
   135 4361:036D   136 4361:0378   137 4361:0383   138 4361:038F
   139 4361:039B   140 4361:03A7   145 4361:03B4   146 4361:03C1
   147 4361:03D3   148 4361:03DF   149 4361:03EA   151 4361:03EC
   152 4361:03F9   156 4361:0406   157 4361:0411   163 4361:041D
   164 4361:0422   166 4361:043D   167 4361:0448   168 4361:0453
   169 4361:045E   176 4361:046C   178 4361:046F   180 4361:0471
   181 4361:047E   182 4361:0490   183 4361:049C   189 4361:04AC
   190 4361:04B6   191 4361:04C6   192 4361:04D4   193 4361:04E1
   194 4361:04ED   195 4361:04F2   205 4361:050C   206 4361:050F
   208 4361:0517   209 4361:052F   210 4361:0544   211 4361:0552
   212 4361:055E   214 4361:0568   215 4361:058D   216 4361:0597
   217 4361:05A2   219 4361:05A5   220 4361:05B4   221 4361:05C9
   222 4361:05D5   223 4361:05E1   225 4361:05E3   226 4361:05EE
   227 4361:05F9   228 4361:0604   229 4361:0612   231 4361:061D
   233 4361:0628   235 4361:062C   237 4361:0634   240 4361:063F
   241 4361:0641   240 4361:065D   243 4361:0663   244 4361:0676
   245 4361:0689   246 4361:069C   247 4361:06AF   248 4361:06C2
   249 4361:06D5   250 4361:06E8   251 4361:06FB   252 4361:070E
   253 4361:0721   254 4361:0734   255 4361:0747   256 4361:075A
   257 4361:076D   258 4361:0780   259 4361:0793   260 4361:07A6
   261 4361:07B2   262 4361:07BE   263 4361:07C0   262 4361:07D0
   265 4361:07D7   266 4361:07E2   267 4361:07EE   269 4361:07FD
   270 4361:0841   271 4361:0875   272 4361:08B0   273 4361:08C7
   274 4361:08DE   276 4361:08E8   277 4361:08F7   274 4361:0904
   281 4361:0912   282 4361:0921   283 4361:092D   284 4361:0938
   285 4361:0944   287 4361:0949
Line numbers for cncsupr.obj(..\cncdrc\cncsupr.cpp) segment CNCSUPR_TEXT

    15 43F5:000D    22 43F5:0015    25 43F5:0021    27 43F5:0039
    29 43F5:003E    30 43F5:006E    31 43F5:0094    33 43F5:009C
    35 43F5:00B2    36 43F5:00BF    38 43F5:00DA    39 43F5:00E3
    35 43F5:00E5    41 43F5:00FF    43 43F5:0119    44 43F5:012D
    46 43F5:013B    47 43F5:0150    48 43F5:0165    49 43F5:0176
    52 43F5:0185    53 43F5:01AD    69 43F5:01F6    73 43F5:0218
    75 43F5:022C    77 43F5:0246    78 43F5:0273    80 43F5:029B
    81 43F5:02BD    83 43F5:0316    84 43F5:032A    86 43F5:0368
    87 43F5:03B5    91 43F5:03CC    97 43F5:03EE    99 43F5:0423
   101 43F5:0439   103 43F5:0449   105 43F5:045D   106 43F5:0495
   108 43F5:04F5   109 43F5:0505   111 43F5:051C   114 43F5:052F
   118 43F5:0542   120 43F5:0556   122 43F5:05C7   123 43F5:05D7
   125 43F5:05EE   128 43F5:0601   132 43F5:0614   133 43F5:0626
   134 43F5:066B   137 43F5:0680   138 43F5:0694   139 43F5:0705
   141 43F5:071A   142 43F5:073D   144 43F5:0795   145 43F5:07AA
   153 43F5:07BB   154 43F5:07E4   157 43F5:07EF   159 43F5:080E
   163 43F5:0820   168 43F5:083B   169 43F5:0854   171 43F5:0856
   174 43F5:0859   176 43F5:0881   177 43F5:0895   179 43F5:08CC
   181 43F5:08E2   183 43F5:0949   188 43F5:0988   189 43F5:099C
   190 43F5:09B6   192 43F5:0A03   193 43F5:0A17   195 43F5:0A2B
   198 43F5:0A45    25 43F5:0A57   202 43F5:0A78
Error: Undefined symbol _ALARM in module ..\cncdrc\cncmup.cpp
Line numbers for cncmup.obj(..\cncdrc\cncmup.cpp) segment CNCMUP_TEXT

    17 449C:000C    20 449C:0014    22 449C:0038    23 449C:0051
    24 449C:005F    25 449C:0074    27 449C:0077    28 449C:0097
    29 449C:00AF    30 449C:00C8    31 449C:00D8    33 449C:00F1
    34 449C:010B    35 449C:0115    36 449C:0124    37 449C:0134
    38 449C:0149    39 449C:0153    41 449C:0165    42 449C:0178
    43 449C:019A    44 449C:01B6    45 449C:01DD    46 449C:01EB
    47 449C:01FE    49 449C:0200    50 449C:0210    51 449C:0237
    53 449C:024A    20 449C:0264    57 449C:0287
Line numbers for cnciref.obj(..\cncdrc\cnciref.cpp) segment CNCIREF_TEXT

    16 44C4:000B    19 44C4:0013    20 44C4:0035    22 44C4:004E
    23 44C4:005A    24 44C4:0067    25 44C4:0077    26 44C4:0088
    27 44C4:00AF    29 44C4:00D8    41 44C4:00EE    42 44C4:00FF
    43 44C4:0126    45 44C4:014F    46 44C4:0163    47 44C4:0178
    48 44C4:0187    51 44C4:019E    54 44C4:01AB    55 44C4:01BE
    56 44C4:01CD    57 44C4:01E1    58 44C4:01F8    60 44C4:0209
    62 44C4:0219    65 44C4:0237    66 44C4:024B    67 44C4:025C
    71 44C4:026B    72 44C4:028F    73 44C4:02A0    74 44C4:02C7
    76 44C4:02F0    77 44C4:0304    78 44C4:0319    79 44C4:0328
    81 44C4:032B    82 44C4:0340    87 44C4:0350    88 44C4:0362
    89 44C4:0373    90 44C4:039A    91 44C4:03C3    92 44C4:03D2
    96 44C4:03E1    97 44C4:03F0    99 44C4:0428   100 44C4:044B
   101 44C4:045B   102 44C4:0469   103 44C4:0475   107 44C4:0489
   109 44C4:04AD   110 44C4:04BE   114 44C4:04D2   115 44C4:04E6
   116 44C4:050D   117 44C4:051E   118 44C4:0540   119 44C4:0567
   120 44C4:0590   121 44C4:05B6   123 44C4:05C7   124 44C4:05D4
   128 44C4:05E6   132 44C4:0630   133 44C4:0641   136 44C4:0655
   138 44C4:0669   139 44C4:067A   140 44C4:0686   144 44C4:0696
   146 44C4:06CE   147 44C4:06DF   148 44C4:0702   149 44C4:0712
   151 44C4:0720   152 44C4:0742   153 44C4:0753   154 44C4:0775
   155 44C4:0780   157 44C4:0782   160 44C4:0795   167 44C4:07DD
   170 44C4:0807   171 44C4:0812   172 44C4:0835   173 44C4:0845
   174 44C4:0853   175 44C4:0876   176 44C4:0886   177 44C4:0894
   178 44C4:08A5   180 44C4:08A7   183 44C4:08B3   185 44C4:08EB
   187 44C4:08F6   190 44C4:090C   192 44C4:0914   193 44C4:0925
   194 44C4:093C   195 44C4:0950   196 44C4:095D   197 44C4:0979
   198 44C4:098A   199 44C4:099A   200 44C4:09D4   201 44C4:09E2
   202 44C4:09F9   203 44C4:0A0D   204 44C4:0A21   205 44C4:0A2F
   206 44C4:0A3C
Line numbers for cncipos.obj(..\cncdrc\cncipos.cpp) segment CNCIPOS_TEXT

    12 4568:0000    14 4568:0008    17 4568:000C    19 4568:002E
    21 4568:0047    25 4568:0064    26 4568:0074    27 4568:0083
    29 4568:00A5    31 4568:00C7    33 4568:00D5    34 4568:00FB
    35 4568:0102    38 4568:0119    39 4568:0130    42 4568:0132
    43 4568:0146    45 4568:0153    46 4568:0196    47 4568:01A4
    49 4568:01C8    50 4568:01EA    51 4568:020C    53 4568:020E
    54 4568:0232    56 4568:023F    61 4568:0268    62 4568:02A0
    64 4568:0387    67 4568:04E3    70 4568:04F1    72 4568:0523
    73 4568:0535    78 4568:05F4    80 4568:06AE    83 4568:06B1
    86 4568:06C0    88 4568:06EB    89 4568:0701    90 4568:0711
    92 4568:0746    91 4568:0768    93 4568:07A9    95 4568:07AC
    97 4568:07E1    96 4568:0803    99 4568:0844   101 4568:0847
   102 4568:085B   103 4568:086A   105 4568:087A   106 4568:0890
   109 4568:0891   110 4568:099B   112 4568:099E   113 4568:09B4
   116 4568:09B5   120 4568:0ABF   122 4568:0AC2   123 4568:0AD0
   125 4568:0AF6   126 4568:0B39   131 4568:0B4E   132 4568:0B67
   135 4568:0B9A   137 4568:0BD7   139 4568:0BE7   140 4568:0C1B
   143 4568:0C41   144 4568:0C50   146 4568:0C6D   148 4568:0C82
   149 4568:0C91   157 4568:0CA2   158 4568:0CB6   159 4568:0CCA
   163 4568:0CD7   166 4568:0CE7   167 4568:0CF9   168 4568:0D07
   169 4568:0D29   173 4568:0D6A   174 4568:0D8C   175 4568:0DCF
   176 4568:0DE7   179 4568:0DFA   180 4568:0E2A   181 4568:0E38
   184 4568:0E5C   186 4568:0E8C   188 4568:0ED6   189 4568:0F00
   190 4568:0F47   193 4568:0F81   196 4568:0FB4   197 4568:0FE4
   198 4568:102D   199 4568:1074   200 4568:10AE   203 4568:1100
   204 4568:1125   206 4568:1195   207 4568:11BD   208 4568:11DF
   209 4568:1232   210 4568:1246   212 4568:127E   213 4568:12B1
   216 4568:12C8   218 4568:12EA   219 4568:1300   221 4568:1318
   222 4568:133A   223 4568:136C   220 4568:137B   224 4568:13B2
   227 4568:13B5   228 4568:13D7   229 4568:140A   226 4568:1419
   231 4568:1450   233 4568:1452   234 4568:1464   255 4568:1476
Line numbers for cncilin.obj(..\cncdrc\cncilin.cpp) segment CNCILIN_TEXT

    32 46AF:000A    36 46AF:0012    37 46AF:0034    38 46AF:0041
    39 46AF:004B    40 46AF:005F    38 46AF:006A    42 46AF:0078
    43 46AF:007D    47 46AF:00C6    48 46AF:00CB    51 46AF:00E4
    52 46AF:00F4    54 46AF:0123    55 46AF:01A6    56 46AF:01C7
    57 46AF:01F3    58 46AF:026F    59 46AF:02B5    61 46AF:02C5
    62 46AF:02DD    63 46AF:0360    64 46AF:0376    65 46AF:0396
    66 46AF:03B8    67 46AF:03CE    68 46AF:041C    71 46AF:042B
    72 46AF:0479    48 46AF:048A    75 46AF:04AF    77 46AF:04B3
    81 46AF:04BB    82 46AF:04DD    83 46AF:04F6    84 46AF:0553
    86 46AF:0560    91 46AF:056D    92 46AF:057C   101 46AF:0584
   102 46AF:0598   103 46AF:05A6   108 46AF:05C9   109 46AF:05ED
   110 46AF:060D   112 46AF:0625   113 46AF:0645   115 46AF:065B
   116 46AF:067A   120 46AF:06A1   121 46AF:06C5   124 46AF:0707
   125 46AF:071F   126 46AF:0763   127 46AF:07B2   131 46AF:07C9
   134 46AF:07E1   135 46AF:0800   136 46AF:0838   139 46AF:0850
   140 46AF:089F   141 46AF:08B2   142 46AF:08C5   144 46AF:0916
Line numbers for cncieok.obj(..\cncdrc\cncieok.cpp) segment CNCIEOK_TEXT

    14 4740:000A    17 4740:0012    20 4740:0016    21 4740:0038
    22 4740:0047    23 4740:0060    24 4740:0078    26 4740:009A
    27 4740:00BA    30 4740:00E4    33 4740:00F4    34 4740:00FE
    36 4740:010A    22 4740:0118    39 4740:013D    40 4740:0150
    43 4740:0165    44 4740:017B    46 4740:0180    47 4740:01AC
    48 4740:01C7    49 4740:01DC    52 4740:01ED    55 4740:0215
    56 4740:0237    57 4740:0257    59 4740:0264    60 4740:0284
    62 4740:028F    63 4740:0298    66 4740:02A9    67 4740:02C9
    69 4740:02D6    70 4740:02E5    72 4740:02F6    75 4740:031D
    76 4740:0349    79 4740:036A    82 4740:0375    83 4740:0394
    85 4740:039D    87 4740:03AC    89 4740:0459    90 4740:047B
    93 4740:0545    95 4740:0554    96 4740:0562    97 4740:057B
    98 4740:058D   100 4740:05A1   101 4740:05B3   102 4740:05C7
   104 4740:05DF   105 4740:05ED   111 4740:07AD   115 4740:07BA
   121 4740:0978    96 4740:0982   124 4740:09A7   129 4740:09B6
   130 4740:09CC   129 4740:09FF   131 4740:0A20   136 4740:0A36
   137 4740:0A63   139 4740:0B26   143 4740:0B39   144 4740:0BD0
   148 4740:0BD5   149 4740:0C38   151 4740:0C3D   152 4740:0C64
   153 4740:0CBE   151 4740:0D0E   154 4740:0D31   158 4740:0D65
   159 4740:0DC2   161 4740:0DD5   162 4740:0DE3   164 4740:0DFB
   165 4740:0E84   166 4740:0E97   167 4740:0EAF   169 4740:0EC8
   172 4740:0EEC   173 4740:0F00   174 4740:0F14   175 4740:0F28
   167 4740:0F33   178 4740:0F58   180 4740:0F65   181 4740:0F79
   182 4740:0F92   184 4740:0FA9
Line numbers for cnciax.obj(..\cncdrc\cnciax.cpp) segment CNCIAX_TEXT

    16 483C:0005    18 483C:000D    23 483C:001A    24 483C:003C
    27 483C:0074    28 483C:0084    29 483C:008D    28 483C:00AF
    30 483C:00C3    32 483C:00D0    33 483C:0105    34 483C:013A
    35 483C:0157    36 483C:01B4    30 483C:0213    39 483C:0225
    41 483C:0237    42 483C:0249    44 483C:027D    45 483C:028D
    47 483C:0334    50 483C:03A4    39 483C:03B4    54 483C:03D1
    55 483C:03E2    56 483C:03F1    57 483C:03FF    58 483C:0416
    55 483C:0438    60 483C:044A    62 483C:0452    63 483C:045F
    64 483C:0469    65 483C:0476    60 483C:0482    68 483C:048E
    69 483C:04A4    70 483C:04AF    71 483C:04C9    72 483C:04D4
    73 483C:04E4    69 483C:04F4    68 483C:04FD    76 483C:050A
    77 483C:0517    78 483C:051D    79 483C:0528    80 483C:0533
    82 483C:053E    83 483C:054F    84 483C:0566    85 483C:056D
    82 483C:057E    87 483C:0587    88 483C:0594    89 483C:059A
    91 483C:05AB    93 483C:05B8    95 483C:05C9    97 483C:05D6
    98 483C:05E1   100 483C:05EC   102 483C:060E   103 483C:0614
   104 483C:061F   105 483C:062A   107 483C:0636   108 483C:0641
   109 483C:0669   110 483C:0674   111 483C:0680   112 483C:068B
   114 483C:068D   115 483C:0698   119 483C:06A3   121 483C:06B1
   122 483C:06C3   123 483C:06D2   125 483C:06F0   126 483C:06FF
   127 483C:0704   128 483C:070F   135 483C:071E   137 483C:072B
   138 483C:073B   139 483C:0754   141 483C:0779   135 483C:07A8
   145 483C:07BA   146 483C:07C6   148 483C:07E2   149 483C:07F1
   150 483C:07FB   152 483C:0809   149 483C:081C   154 483C:082A
   157 483C:0835   158 483C:084F   159 483C:089B   161 483C:08A6
   162 483C:08C0   163 483C:090C   165 483C:0917   166 483C:0939
   168 483C:0959   169 483C:0968   170 483C:0976   171 483C:098D
   172 483C:0999   176 483C:09D5   177 483C:09E2   178 483C:0A04
   179 483C:0A11   180 483C:0A28   181 483C:0A38   182 483C:0A47
   184 483C:0A53   185 483C:0A63   188 483C:0A75   189 483C:0A83
   190 483C:0A8E   191 483C:0A9C   192 483C:0AB3   193 483C:0ACA
   168 483C:0ADA   198 483C:0AEE   199 483C:0B18   200 483C:0B42
   201 483C:0B6A   203 483C:0B87   204 483C:0B97   205 483C:0B9C
   206 483C:0BB3   207 483C:0BC0   208 483C:0BCB   210 483C:0BCD
   211 483C:0BD8   212 483C:0BE5   213 483C:0BF0   214 483C:0BFB
   215 483C:0C06   216 483C:0C12   217 483C:0C1E   218 483C:0C37
   204 483C:0C45   223 483C:0C50   224 483C:0C6C   225 483C:0C95
   227 483C:0CCB   228 483C:0CE4   230 483C:0D1A   235 483C:0D33
   236 483C:0D51   237 483C:0D58   236 483C:0D72   238 483C:0D7D
   239 483C:0D9B   240 483C:0DA2   239 483C:0DBC   244 483C:0DC7
   245 483C:0DD6   247 483C:0DE5   248 483C:0DF1   249 483C:0E0D
   250 483C:0E12   251 483C:0E21   252 483C:0E31   253 483C:0E41
   254 483C:0E51   255 483C:0E61   257 483C:0E72   258 483C:0E8C
   260 483C:0E96   261 483C:0EA6   262 483C:0ECB   263 483C:0EDD
   260 483C:0EE7   266 483C:0EF0   267 483C:0EFD   268 483C:0F11
   269 483C:0F2A   274 483C:0F90   275 483C:0FAA   277 483C:0FB8
   278 483C:0FC4   267 483C:0FCF   280 483C:0FE6   281 483C:1005
   283 483C:101A   284 483C:1029   286 483C:1038   287 483C:1044
   288 483C:1060   289 483C:1065   290 483C:1072   291 483C:1089
   293 483C:10AE   294 483C:10C6   295 483C:10D8   290 483C:10E2
   300 483C:10EE   301 483C:10FB   303 483C:1129   304 483C:1136
   305 483C:1141   306 483C:114F   307 483C:115B   308 483C:1174
   311 483C:1192   312 483C:119D   313 483C:11E3   306 483C:121F
   315 483C:122F   318 483C:1232   322 483C:1240   325 483C:126E
   326 483C:127A   327 483C:1292   326 483C:129D   328 483C:12C0
   329 483C:12CE   330 483C:12DA   332 483C:1336   329 483C:1372
   333 483C:1382   336 483C:1384   339 483C:1398   340 483C:13A5
   342 483C:13AA   343 483C:13BE   340 483C:13C9   347 483C:13D2
   348 483C:13E4   350 483C:13FA   351 483C:1407   352 483C:141C
   356 483C:144E   357 483C:145A   358 483C:1465   359 483C:1470
   361 483C:14A6   362 483C:14BF   364 483C:14F5   366 483C:150E
   367 483C:152A   347 483C:1548   370 483C:1565   371 483C:156F
   372 483C:157D   373 483C:1592   374 483C:15A1   375 483C:15B8
   377 483C:15BA   378 483C:15D1   380 483C:15DF   370 483C:15EC
   383 483C:15FC   385 483C:161F   386 483C:162A   387 483C:163E
   389 483C:1650   390 483C:1662   391 483C:166C   392 483C:1685
   390 483C:16A2   393 483C:16B0   394 483C:16C6   395 483C:16D5
   396 483C:16E4   397 483C:16F4   398 483C:16FF   399 483C:1709
   400 483C:171F   401 483C:173C   402 483C:175B   403 483C:177A
   404 483C:1799   405 483C:17BE   407 483C:17C0   398 483C:17DF
   409 483C:17EF   410 483C:17FF   411 483C:180E   412 483C:181A
   414 483C:181C   415 483C:182B   416 483C:183B   417 483C:1847
   418 483C:1851   419 483C:1878   420 483C:1895   417 483C:18B4
   422 483C:18C2   423 483C:18D2   425 483C:18E1   426 483C:18F1
   427 483C:18FD   428 483C:1907   431 483C:193A   427 483C:1957
   432 483C:1965   433 483C:1975   435 483C:1983   436 483C:1993
   437 483C:199F   438 483C:19A9   444 483C:1A14   437 483C:1A31
   445 483C:1A41   446 483C:1A51   448 483C:1A5F   449 483C:1A6F
   450 483C:1A7A   451 483C:1A89   452 483C:1A9A   453 483C:1AB7
   454 483C:1AEB   456 483C:1AED   457 483C:1B12   450 483C:1B31
   460 483C:1B45   464 483C:1B53   466 483C:1B5E   467 483C:1B6B
   469 483C:1B6F   472 483C:1B77   473 483C:1B99   481 483C:1C2B
   482 483C:1C42   483 483C:1C56   485 483C:1C67   486 483C:1C88
   489 483C:1CAF   490 483C:1CC0   491 483C:1CCB   492 483C:1CD7
   493 483C:1CE2   494 483C:1CEE   495 483C:1D0A   496 483C:1D19
   497 483C:1D2D   498 483C:1D41   499 483C:1D55   500 483C:1D69
   501 483C:1D76   502 483C:1D8A   503 483C:1D9E   504 483C:1DB2
   505 483C:1DC6   506 483C:1DDA   507 483C:1DEE   508 483C:1E05
   509 483C:1E15   510 483C:1E24
Line numbers for cncdtime.obj(..\cncdrc\cncdtime.cpp) segment CNCDTIME_TEXT

    22 4A1E:0008    28 4A1E:0021    29 4A1E:0022    30 4A1E:002E
    33 4A1E:0045    34 4A1E:0046    35 4A1E:0052    40 4A1E:005C
    42 4A1E:0069    43 4A1E:0074    45 4A1E:007F    46 4A1E:008B
    51 4A1E:00A0    52 4A1E:00B0    53 4A1E:00BB    55 4A1E:00C6
    56 4A1E:00D5    57 4A1E:00E4    58 4A1E:00EF    59 4A1E:00F3
    58 4A1E:0104    60 4A1E:010D    63 4A1E:010F    64 4A1E:011B
    66 4A1E:0121    69 4A1E:013D    70 4A1E:0149    71 4A1E:014F
    72 4A1E:0154    75 4A1E:0157    80 4A1E:01A7    81 4A1E:01AC
    82 4A1E:01B1    83 4A1E:01C3    88 4A1E:01FB    89 4A1E:0206
    90 4A1E:0215    95 4A1E:022A    98 4A1E:024C    99 4A1E:025A
   100 4A1E:0265   102 4A1E:0274   103 4A1E:0284   107 4A1E:0293
   109 4A1E:02B7   110 4A1E:02C2   111 4A1E:02CE   112 4A1E:02D9
   113 4A1E:02E4   115 4A1E:02EF   116 4A1E:02FD   117 4A1E:030B
   118 4A1E:0317   124 4A1E:0322   125 4A1E:032F   127 4A1E:0336
   128 4A1E:0345   130 4A1E:0355   131 4A1E:0371   133 4A1E:037F
   134 4A1E:0384   135 4A1E:0390   136 4A1E:039B   137 4A1E:03A6
   138 4A1E:03B2   139 4A1E:03BD   140 4A1E:03C9   145 4A1E:03CC
   146 4A1E:03D7   151 4A1E:03E6   152 4A1E:0402   154 4A1E:040A
   158 4A1E:0442   160 4A1E:044E   164 4A1E:047A   166 4A1E:04A6
   168 4A1E:04AD   169 4A1E:04BB   172 4A1E:04C2   173 4A1E:04D0
   175 4A1E:04D5   177 4A1E:0504   182 4A1E:0522   184 4A1E:0530
   185 4A1E:053B   186 4A1E:0547   187 4A1E:054C   189 4A1E:054E
   191 4A1E:056A   192 4A1E:056F   193 4A1E:0581   198 4A1E:05A5
   200 4A1E:05C7   202 4A1E:05D6   203 4A1E:05E6   204 4A1E:060D
   206 4A1E:061A   209 4A1E:0632   233 4A1E:0651   234 4A1E:0661
   236 4A1E:067E   240 4A1E:068E   241 4A1E:069A   248 4A1E:06A0
   249 4A1E:06AC   250 4A1E:06AE   252 4A1E:06BE   255 4A1E:06C0
   258 4A1E:06F2   259 4A1E:06FE   260 4A1E:0703   261 4A1E:0713
   263 4A1E:0721   264 4A1E:072C   266 4A1E:0737   267 4A1E:0741
   269 4A1E:0743   270 4A1E:074F   272 4A1E:075B   275 4A1E:078B
   276 4A1E:0797   277 4A1E:079C   278 4A1E:07AC   280 4A1E:07B4
   281 4A1E:07BF   283 4A1E:07CA   284 4A1E:07CE   286 4A1E:07D0
   287 4A1E:07D6   289 4A1E:07E2   290 4A1E:07EE
Line numbers for cncdrc.obj(..\cncdrc\cncdrc.cpp) segment CNCDRC_TEXT

    15 4A9D:0001    17 4A9D:0009    19 4A9D:0015    22 4A9D:0025
    24 4A9D:0044    25 4A9D:0052    26 4A9D:0064    27 4A9D:0072
    28 4A9D:0083    29 4A9D:0092    30 4A9D:00AE    31 4A9D:00C3
    32 4A9D:00DF    22 4A9D:00FB    36 4A9D:010C    38 4A9D:0152
    41 4A9D:0155    42 4A9D:0164    45 4A9D:017D    46 4A9D:018E
    47 4A9D:01C8    48 4A9D:01D9    49 4A9D:01E6    52 4A9D:01F1
    53 4A9D:0204    54 4A9D:0233    55 4A9D:0244    56 4A9D:0250
    57 4A9D:0262    58 4A9D:0274    59 4A9D:0289    60 4A9D:0296
    63 4A9D:02B4    64 4A9D:02C7    66 4A9D:02F4    67 4A9D:0308
    68 4A9D:031B    69 4A9D:032E    70 4A9D:0341    71 4A9D:0354
    74 4A9D:0363    75 4A9D:037D    76 4A9D:0397    78 4A9D:03AA
    81 4A9D:03B7    82 4A9D:03CA    85 4A9D:03D7    86 4A9D:03E7
    87 4A9D:0401    89 4A9D:0414    92 4A9D:0421    93 4A9D:0434
    42 4A9D:0441    98 4A9D:045C   100 4A9D:0461   101 4A9D:047B
   103 4A9D:0480   104 4A9D:0487   105 4A9D:04A4   103 4A9D:04AE
   107 4A9D:04BF   108 4A9D:04CC   122 4A9D:04D1   124 4A9D:04E0
   127 4A9D:051C   128 4A9D:053E   129 4A9D:0550   132 4A9D:0552
   122 4A9D:056D   142 4A9D:0580   144 4A9D:05B3   146 4A9D:05BD
   148 4A9D:05DC   149 4A9D:05F6   150 4A9D:0606   151 4A9D:0615
   153 4A9D:0634   155 4A9D:0642   157 4A9D:0660   158 4A9D:0670
   159 4A9D:067F   160 4A9D:068D   164 4A9D:069D   168 4A9D:06BC
   169 4A9D:06C9   171 4A9D:06D4   174 4A9D:06E4   175 4A9D:06F3
   176 4A9D:0711   177 4A9D:0730   178 4A9D:0740   180 4A9D:0753
   181 4A9D:0760   144 4A9D:076C   187 4A9D:077B
Line numbers for cnccamp.obj(..\cncdrc\cnccamp.cpp) segment CNCCAMP_TEXT

    37 4B14:0018    48 4B14:0020    49 4B14:002B    50 4B14:003A
    53 4B14:0045    54 4B14:0057    55 4B14:005C    56 4B14:006A
    57 4B14:0078    58 4B14:008A    59 4B14:008F    60 4B14:009D
    61 4B14:00AB    62 4B14:00B7    64 4B14:00C2    65 4B14:00CB
    66 4B14:00D6    67 4B14:00E1    69 4B14:00E3    70 4B14:00EE
    71 4B14:00F3    73 4B14:00FF    74 4B14:0104    76 4B14:0112
    78 4B14:011D    80 4B14:0124    81 4B14:0129    82 4B14:012E
    83 4B14:013A    85 4B14:0146    86 4B14:015E    87 4B14:0176
    88 4B14:018B    91 4B14:019D    94 4B14:01C7    95 4B14:01D3
    97 4B14:01DF    89 4B14:01E4    99 4B14:01F2   100 4B14:01FD
   101 4B14:0226   102 4B14:022B   103 4B14:023A   105 4B14:0247
   109 4B14:0277   110 4B14:0284   111 4B14:0287   112 4B14:028F
   113 4B14:029F   114 4B14:02AE   116 4B14:02BE   117 4B14:02CE
   118 4B14:02DE   120 4B14:02F6   121 4B14:030A   122 4B14:0323
   123 4B14:0331   125 4B14:0333   127 4B14:033F   128 4B14:0353
   129 4B14:0361   103 4B14:036F   133 4B14:0388   134 4B14:0396
   135 4B14:03A4   136 4B14:03B1   137 4B14:03C5   138 4B14:03E1
   139 4B14:03F2   140 4B14:0400   141 4B14:040D   142 4B14:041E
   143 4B14:042C   144 4B14:0439   145 4B14:044A   146 4B14:0458
   147 4B14:0465   148 4B14:04AF   149 4B14:04F9   150 4B14:0543
   151 4B14:0554   152 4B14:0562   153 4B14:056F   154 4B14:0583
   155 4B14:059F   156 4B14:05B0   157 4B14:05BE   158 4B14:05CB
   159 4B14:05DF   160 4B14:05ED   161 4B14:05FB   162 4B14:060C
   163 4B14:061A   164 4B14:0627   165 4B14:063B   166 4B14:0649
   167 4B14:0657   168 4B14:0668   169 4B14:0676   170 4B14:0683
   171 4B14:0697   172 4B14:06A5   173 4B14:06B3   174 4B14:06C4
   175 4B14:06D2   176 4B14:06DF   177 4B14:06F3   194 4B14:070F
   195 4B14:0720   196 4B14:072E   197 4B14:073B   198 4B14:074F
   199 4B14:075D   200 4B14:076B   202 4B14:0770   203 4B14:0773
   204 4B14:0787   205 4B14:0795   200 4B14:07A3   207 4B14:07B3
   208 4B14:07C4   209 4B14:07D2   210 4B14:07DF   211 4B14:07F3
   212 4B14:080F   213 4B14:0820   214 4B14:082E   215 4B14:083B
   216 4B14:084F   217 4B14:086B   218 4B14:087C   219 4B14:088A
   220 4B14:0897   221 4B14:08AB   222 4B14:08B9   223 4B14:08C7
   224 4B14:08D8   225 4B14:08E6   226 4B14:08F3   227 4B14:0907
   228 4B14:0915   229 4B14:0923   235 4B14:0930   236 4B14:094C
   238 4B14:095C   240 4B14:0961   244 4B14:098B   245 4B14:0997
   246 4B14:099C   248 4B14:099F   251 4B14:09BB   252 4B14:09C7
   253 4B14:09CC   255 4B14:09CF   257 4B14:09EB   258 4B14:09F7
   259 4B14:09FC   261 4B14:09FE   264 4B14:0A1A   265 4B14:0A26
   266 4B14:0A2B   268 4B14:0A2D   271 4B14:0A49   272 4B14:0A55
   312 4B14:0A5A   313 4B14:0A5F   318 4B14:0A6E   328 4B14:0A72
   335 4B14:0A7A   336 4B14:0A7D   337 4B14:0A98   338 4B14:0AA4
   339 4B14:0AA7   340 4B14:0AC2   341 4B14:0ACE   342 4B14:0AD1
   343 4B14:0AEC   344 4B14:0AF8   345 4B14:0AFB   346 4B14:0B16
   347 4B14:0B22   352 4B14:0B2C   353 4B14:0B4A   356 4B14:0B59
   357 4B14:0B6E   360 4B14:0B8A   363 4B14:0BAD   364 4B14:0BB3
   365 4B14:0BB9   366 4B14:0BC4   364 4B14:0BD3   368 4B14:0BDF
   370 4B14:0BE8   373 4B14:0C2C   368 4B14:0C67   376 4B14:0C76
   378 4B14:0C9A   379 4B14:0CB2   380 4B14:0CBC   382 4B14:0CDD
   383 4B14:0CF4   384 4B14:0CF8   383 4B14:0D07   385 4B14:0D10
   386 4B14:0D1A   387 4B14:0D1C   386 4B14:0D32   388 4B14:0D38
   389 4B14:0D50   390 4B14:0D61   392 4B14:0D86   393 4B14:0D8A
   392 4B14:0DA0   347 4B14:0DA9   396 4B14:0DB8
Line numbers for cnctedi.obj(..\cncshow\cnctedi.cpp) segment CNCTEDI_TEXT

    21 4BEF:000C    25 4BEF:0014    27 4BEF:0020    30 4BEF:0050
    31 4BEF:0060    32 4BEF:0070    33 4BEF:0075    34 4BEF:0080
    35 4BEF:0087    38 4BEF:00AA    42 4BEF:00CC    43 4BEF:00DB
    45 4BEF:00E1    46 4BEF:00EC    47 4BEF:00F7    48 4BEF:0102
    49 4BEF:0112
Line numbers for cncstio.obj(..\cncshow\cncstio.cpp) segment CNCSTIO_TEXT

    25 4C01:000D    29 4C01:0015    31 4C01:003D    40 4C01:0052
    41 4C01:005E    43 4C01:006A    44 4C01:007F    46 4C01:008A
    41 4C01:00B0    40 4C01:00BD    49 4C01:00C9    51 4C01:00D5
    53 4C01:00E2    57 4C01:00EA    59 4C01:0112    60 4C01:0124
    67 4C01:0128    68 4C01:0134    69 4C01:0140    68 4C01:017B
    67 4C01:0188    70 4C01:0194    71 4C01:01A0    73 4C01:01A3
    77 4C01:01AF    81 4C01:01B7    83 4C01:01DF    92 4C01:01F4
    93 4C01:0201    95 4C01:020E    96 4C01:0223    97 4C01:0238
    99 4C01:0243   100 4C01:026B    93 4C01:0295    92 4C01:02A4
   102 4C01:02B3   104 4C01:02BF   108 4C01:02D3   112 4C01:02DB
   114 4C01:0303   115 4C01:0315   122 4C01:031A   123 4C01:0327
   125 4C01:0334   126 4C01:036F   123 4C01:03B2   122 4C01:03C1
   128 4C01:03D0   129 4C01:03DC   131 4C01:03DF   136 4C01:03E8
   140 4C01:03F0   142 4C01:0418   151 4C01:042D   152 4C01:043A
   153 4C01:0447   155 4C01:045F   156 4C01:0474   158 4C01:0481
   159 4C01:04A9   160 4C01:04D5   153 4C01:0505   152 4C01:051A
   151 4C01:0529   162 4C01:0538   164 4C01:0544   169 4C01:0551
   173 4C01:0559   175 4C01:0581   176 4C01:0593   183 4C01:0598
   184 4C01:05A4   185 4C01:05B0   186 4C01:05C2   185 4C01:05FD
   184 4C01:060C   183 4C01:0619   187 4C01:0628   188 4C01:0634
   190 4C01:0637
Line numbers for cncstedc.obj(..\cncshow\cncstedc.cpp) segment CNCSTEDC_TEXT

   117 4C64:000B   119 4C64:0010   121 4C64:0020   122 4C64:0025
   124 4C64:0030   126 4C64:003F   130 4C64:0043   134 4C64:004B
   135 4C64:005D   137 4C64:0071   138 4C64:007C   135 4C64:0087
   140 4C64:009E   141 4C64:00B0   142 4C64:00B5   147 4C64:00B9
   151 4C64:00C1   152 4C64:00DB   154 4C64:00F4   156 4C64:011A
   157 4C64:012A   158 4C64:012F   160 4C64:0131   152 4C64:0141
   162 4C64:0158   163 4C64:015E   164 4C64:0184   169 4C64:0188
   174 4C64:0190   176 4C64:01B8   177 4C64:01DF   178 4C64:01E6
   179 4C64:0206   180 4C64:0209   174 4C64:020C   182 4C64:0216
   183 4C64:021A   184 4C64:021D   188 4C64:0221   191 4C64:0226
   192 4C64:0238   193 4C64:023B   194 4C64:023D   198 4C64:0241
   204 4C64:024A   206 4C64:0259   208 4C64:0285   210 4C64:0294
   212 4C64:02B4   214 4C64:02BD   216 4C64:02CE   218 4C64:02E7
   219 4C64:02F3   220 4C64:02FF   221 4C64:030B   222 4C64:0317
   223 4C64:0323   224 4C64:032F   225 4C64:033A   226 4C64:0345
   227 4C64:0350   228 4C64:035B   230 4C64:0366   231 4C64:0371
   233 4C64:037C   235 4C64:0387   237 4C64:0389   249 4C64:03D6
   252 4C64:03DF   254 4C64:03ED   255 4C64:0407   256 4C64:041D
   257 4C64:042C   260 4C64:042E   261 4C64:0440   262 4C64:0445
   264 4C64:044A   269 4C64:0465   270 4C64:049C   271 4C64:04AF
   272 4C64:04B7   273 4C64:04C2   274 4C64:04CC   281 4C64:04DA
   282 4C64:04EE   283 4C64:04F6   285 4C64:0531   292 4C64:057F
   293 4C64:0591   294 4C64:0596   296 4C64:05A0   297 4C64:05A7
   298 4C64:05B5   299 4C64:05C1   303 4C64:0601   311 4C64:060A
   312 4C64:0632   313 4C64:0640   315 4C64:0653   317 4C64:065C
   318 4C64:0695   319 4C64:069C   321 4C64:06BD   322 4C64:06C2
   323 4C64:06D5   324 4C64:06E0   325 4C64:06E5   327 4C64:06F6
   328 4C64:0712   329 4C64:0715   332 4C64:0717   334 4C64:071D
   335 4C64:0723   337 4C64:0730   338 4C64:074B   339 4C64:0751
   342 4C64:076F   344 4C64:0788   345 4C64:078F   346 4C64:079E
   315 4C64:07AC   348 4C64:07B9   353 4C64:07BC   354 4C64:07CE
   355 4C64:07D2   356 4C64:07FA   357 4C64:0821   358 4C64:0850
   359 4C64:086F   361 4C64:087D   366 4C64:0885   369 4C64:088D
   370 4C64:08B5   372 4C64:08C9   373 4C64:08DE   370 4C64:08EF
   375 4C64:0907   379 4C64:090B   381 4C64:0910   382 4C64:093E
   385 4C64:094D   386 4C64:095B   387 4C64:0962   388 4C64:0969
   389 4C64:0970   390 4C64:0977   391 4C64:097E   392 4C64:0985
   402 4C64:0997   404 4C64:099C   405 4C64:09C9   410 4C64:09CD
   413 4C64:09D5   416 4C64:0A02   418 4C64:0A13   421 4C64:0A19
   422 4C64:0A44   423 4C64:0A52   424 4C64:0A60   428 4C64:0A63
   430 4C64:0A69   431 4C64:0A77   433 4C64:0A85   435 4C64:0AB8
   437 4C64:0AD3   440 4C64:0AEC   444 4C64:0B50   446 4C64:0B5C
   449 4C64:0B6E   453 4C64:0B72   455 4C64:0B7A   458 4C64:0B8B
   461 4C64:0BAC   464 4C64:0BCD   469 4C64:0BEE   470 4C64:0C00
   471 4C64:0C11   473 4C64:0C13   476 4C64:0C2A   478 4C64:0C36
   480 4C64:0C3B   483 4C64:0C4E   484 4C64:0C5C   485 4C64:0C6D
   486 4C64:0C8F   488 4C64:0C97   489 4C64:0CA8   490 4C64:0CB9
   491 4C64:0CCF   492 4C64:0CD9   497 4C64:0CDD   500 4C64:0CE8
   505 4C64:0CF7   506 4C64:0CFB   512 4C64:0CFD   513 4C64:0D01
   519 4C64:0D03   521 4C64:0D14   522 4C64:0D27   528 4C64:0D29
   529 4C64:0D2E   536 4C64:0D30   538 4C64:0D41   539 4C64:0D54
   545 4C64:0D56   550 4C64:0D62   552 4C64:0D65   556 4C64:0D71
   559 4C64:0D7C   562 4C64:0D8B   563 4C64:0D8F   568 4C64:0D91
   569 4C64:0D95   574 4C64:0D97   575 4C64:0D9C   580 4C64:0D9E
   582 4C64:0DAF   583 4C64:0DB5   589 4C64:0DB7   594 4C64:0DD0
   596 4C64:0DD3   600 4C64:0DDF   602 4C64:0DEA   604 4C64:0DF9
   605 4C64:0E13   606 4C64:0E2D   607 4C64:0E47   609 4C64:0E61
   610 4C64:0E64   614 4C64:0E70   616 4C64:0E78   617 4C64:0E87
   619 4C64:0E9A   622 4C64:0EBF   623 4C64:0ED3   624 4C64:0EF8
   626 4C64:0F0B   631 4C64:0F20   632 4C64:0F59   633 4C64:0F65
   634 4C64:0F75   638 4C64:0F85   639 4C64:0FAA   643 4C64:0FAE
   646 4C64:0FB6   648 4C64:0FDF   652 4C64:1008   654 4C64:1031
   657 4C64:105A   660 4C64:1070   662 4C64:1086   663 4C64:10AE
   667 4C64:10B2   669 4C64:10C8   670 4C64:10F0   671 4C64:1106
   672 4C64:110A   674 4C64:110C   675 4C64:1110   680 4C64:1114
   682 4C64:111C   686 4C64:112B   690 4C64:1143   694 4C64:115B
   698 4C64:1173   699 4C64:1188   701 4C64:118A   705 4C64:1196
   709 4C64:11A1   712 4C64:11A5   713 4C64:11C1   718 4C64:11D3
   721 4C64:11D7   727 4C64:11F3   730 4C64:11F9   732 4C64:1215
   737 4C64:1226   740 4C64:122C   741 4C64:1250   745 4C64:1259
   746 4C64:125B   750 4C64:125F   756 4C64:1267   758 4C64:126E
   759 4C64:128D   761 4C64:1292   756 4C64:12A7   763 4C64:12BE
   764 4C64:12C2   768 4C64:12C6   770 4C64:12CB   772 4C64:12DA
   773 4C64:12E2   774 4C64:12EA   775 4C64:12F2   777 4C64:12F8
   781 4C64:1304   785 4C64:130C   788 4C64:1314   790 4C64:1326
   791 4C64:132C   792 4C64:1332   799 4C64:1339   804 4C64:134C
   805 4C64:1364   806 4C64:1375   801 4C64:137C   800 4C64:1392
   808 4C64:13A1   810 4C64:13A5   815 4C64:13A9   819 4C64:13B1
   823 4C64:13E1   824 4C64:13FA   828 4C64:1401   832 4C64:1405
   834 4C64:140D   838 4C64:141E   840 4C64:1429   842 4C64:1467
   845 4C64:1469   846 4C64:1475   849 4C64:14B9   853 4C64:14C5
   857 4C64:14CD   860 4C64:14E0   861 4C64:14EC   860 4C64:14FA
   862 4C64:1503   863 4C64:150A   864 4C64:1511   863 4C64:1557
   862 4C64:1562   865 4C64:1578   866 4C64:1590   865 4C64:15B4
   867 4C64:15BF   869 4C64:15C3   874 4C64:15C7   878 4C64:15CF
   880 4C64:15E2   881 4C64:15FA   880 4C64:1608   882 4C64:1611
   883 4C64:1624   884 4C64:162B   883 4C64:1671   882 4C64:167C
   885 4C64:1686   886 4C64:1692   885 4C64:16B6   887 4C64:16C1
   889 4C64:16C5   893 4C64:16C9   895 4C64:16CE   897 4C64:16DF
   898 4C64:16ED   899 4C64:1703   900 4C64:1718   902 4C64:1727
   907 4C64:172B   911 4C64:1733   913 4C64:1763   914 4C64:1771
   915 4C64:1779   916 4C64:1786   918 4C64:1794   923 4C64:1798
   927 4C64:17A0   929 4C64:17D0   930 4C64:180B   931 4C64:1817
   932 4C64:1823   934 4C64:184D   939 4C64:1854   948 4C64:185D
   955 4C64:189E   961 4C64:18D0   962 4C64:18F7   965 4C64:1900
   967 4C64:190E   973 4C64:1936   974 4C64:195A   975 4C64:197E
   977 4C64:1983   981 4C64:198B   982 4C64:199C   983 4C64:19AA
   984 4C64:19B5   985 4C64:19CE   986 4C64:19E8   987 4C64:19F3
   988 4C64:1A00   989 4C64:1A0F   956 4C64:1A1F   951 4C64:1A27
   950 4C64:1A45   993 4C64:1A54   994 4C64:1A56   998 4C64:1A5A
  1000 4C64:1A5C  1001 4C64:1A7C  1002 4C64:1A8D  1003 4C64:1A9E
  1004 4C64:1ABC  1005 4C64:1AC6  1006 4C64:1ACA  1008 4C64:1ACD
  1010 4C64:1ACF  1011 4C64:1AE0  1012 4C64:1AFE  1013 4C64:1B0F
  1014 4C64:1B30  1015 4C64:1B40  1016 4C64:1B5D  1017 4C64:1B67
  1018 4C64:1B6B  1020 4C64:1B6E  1023 4C64:1B76  1025 4C64:1B7C
  1027 4C64:1B91  1028 4C64:1B9C  1030 4C64:1BA7  1032 4C64:1BB8
  1036 4C64:1BBC  1038 4C64:1BCD  1039 4C64:1BD6  1043 4C64:1BDA
  1045 4C64:1BE5  1046 4C64:1BF6  1050 4C64:1C2D  1051 4C64:1C34
  1050 4C64:1C6E  1054 4C64:1C7B  1056 4C64:1CB7  1058 4C64:1CCA
  1062 4C64:1D01  1066 4C64:1D09  1068 4C64:1D2F  1070 4C64:1D37
  1072 4C64:1D3E  1073 4C64:1D5C  1080 4C64:1D60  1081 4C64:1DA6
  1086 4C64:1DB7  1090 4C64:1DC9  1092 4C64:1DCE  1093 4C64:1DF1
  1098 4C64:1DF5  1103 4C64:1DFD  1105 4C64:1E16  1106 4C64:1E42
  1107 4C64:1E49  1109 4C64:1E6B  1110 4C64:1E6E  1111 4C64:1E71
  1103 4C64:1E76  1114 4C64:1E7B  1115 4C64:1E7E  1120 4C64:1E82
  1124 4C64:1E8A  1125 4C64:1ECE  1127 4C64:1EE1  1129 4C64:1EEA
  1130 4C64:1F40  1132 4C64:1F47  1135 4C64:1F5C  1137 4C64:1FA4
  1138 4C64:1FAF  1146 4C64:1FBD  1148 4C64:1FCD  1150 4C64:2013
  1151 4C64:2035  1152 4C64:2046  1155 4C64:205B  1159 4C64:205F
  1164 4C64:2067  1165 4C64:20AB  1166 4C64:20B4  1167 4C64:20C7
  1168 4C64:20D7  1170 4C64:20F5  1171 4C64:2118  1172 4C64:2120
  1173 4C64:2132  1174 4C64:2141  1175 4C64:2157  1177 4C64:216C
  1181 4C64:2170  1186 4C64:2178  1187 4C64:21BC  1188 4C64:21C5
  1189 4C64:21D8  1191 4C64:21F6  1192 4C64:2219  1193 4C64:2221
  1194 4C64:2236  1195 4C64:2245  1197 4C64:225A  1201 4C64:225E
  1204 4C64:2266  1209 4C64:2291  1210 4C64:22D5  1211 4C64:22DC
  1213 4C64:22F4  1216 4C64:2308  1217 4C64:2327  1218 4C64:2336
  1219 4C64:234C  1221 4C64:2361  1226 4C64:2365  1231 4C64:236D
  1233 4C64:23B1  1235 4C64:23C4  1237 4C64:23CB  1239 4C64:23E3
  1243 4C64:23F8  1245 4C64:243C  1247 4C64:244F  1248 4C64:245A
  1250 4C64:248B  1253 4C64:24A0  1254 4C64:24BA  1255 4C64:24CE
  1257 4C64:24F0  1260 4C64:2505  1261 4C64:2540  1262 4C64:254F
  1263 4C64:255F  1270 4C64:2581  1273 4C64:2591  1274 4C64:25AA
  1275 4C64:25BB  1278 4C64:25F5  1279 4C64:264E  1281 4C64:2669
  1282 4C64:2678  1283 4C64:268E  1286 4C64:26A3  1288 4C64:26A7
  1290 4C64:26AC  1291 4C64:26D5
Line numbers for cncsrmsg.obj(..\cncshow\cncsrmsg.cpp) segment CNCSRMSG_TEXT

    28 4ED1:000B    31 4ED1:0014    35 4ED1:0027    38 4ED1:003C
    39 4ED1:0052    40 4ED1:0059    45 4ED1:006E    47 4ED1:0078
    49 4ED1:009B    53 4ED1:00B0    55 4ED1:00BD    56 4ED1:00D0
    57 4ED1:00E2    59 4ED1:0105    60 4ED1:0117    63 4ED1:0125
    64 4ED1:015E    53 4ED1:0174    68 4ED1:0196    69 4ED1:01A2
    73 4ED1:01A8    76 4ED1:01B1    77 4ED1:01C3    80 4ED1:01D8
    81 4ED1:01F2    86 4ED1:0206    88 4ED1:020D    89 4ED1:0222
    91 4ED1:022D    92 4ED1:023F    93 4ED1:024B    86 4ED1:024F
    96 4ED1:025D    97 4ED1:0269   100 4ED1:026E   101 4ED1:027A
   102 4ED1:027C   106 4ED1:0280   109 4ED1:0287   108 4ED1:02A0
   110 4ED1:02AD   111 4ED1:02BC
Line numbers for cncsman.obj(..\cncshow\cncsman.cpp) segment CNCSMAN_TEXT

    38 4EFD:0000    41 4EFD:0008    43 4EFD:001A    45 4EFD:004D
    46 4EFD:005B    47 4EFD:0066    48 4EFD:0069    49 4EFD:007B
    51 4EFD:007E    52 4EFD:0090    54 4EFD:0092    55 4EFD:00A4
    56 4EFD:00A6    57 4EFD:00B4    58 4EFD:00B6    59 4EFD:00C4
    60 4EFD:00C6    61 4EFD:00D4    62 4EFD:00D6    63 4EFD:00E4
    64 4EFD:00E6    65 4EFD:00F4    67 4EFD:00F6    68 4EFD:0109
    70 4EFD:010C    74 4EFD:0120    76 4EFD:0125    78 4EFD:0135
    80 4EFD:0140    83 4EFD:014C    86 4EFD:0167    88 4EFD:0177
    89 4EFD:019F    90 4EFD:01C4    91 4EFD:01C6    93 4EFD:01D1
    95 4EFD:01DC    97 4EFD:01E0    99 4EFD:01E8   100 4EFD:01F6
   102 4EFD:0202   103 4EFD:020E   106 4EFD:0214   107 4EFD:0220
   110 4EFD:0225   112 4EFD:0231   114 4EFD:0243   115 4EFD:024E
   118 4EFD:0252   120 4EFD:025A   121 4EFD:025F   123 4EFD:026D
   124 4EFD:028D   127 4EFD:0292   129 4EFD:029E   130 4EFD:02B0
   131 4EFD:02BE   132 4EFD:02C9   134 4EFD:02CF   136 4EFD:02DF
   137 4EFD:02F9   141 4EFD:030E   142 4EFD:0329   145 4EFD:0343
   148 4EFD:0347   150 4EFD:034C   151 4EFD:036C   152 4EFD:037C
   154 4EFD:0380   156 4EFD:0385   157 4EFD:0390   158 4EFD:039B
   159 4EFD:03AB   161 4EFD:03AF   164 4EFD:03B4   166 4EFD:03C7
   168 4EFD:03D3   169 4EFD:03E3   171 4EFD:03E7   174 4EFD:03EC
   177 4EFD:03F9   178 4EFD:0403   181 4EFD:0411   182 4EFD:0421
   184 4EFD:0425   187 4EFD:042A   190 4EFD:0437   191 4EFD:0441
   194 4EFD:044F   195 4EFD:045F
Line numbers for cncskor.obj(..\cncshow\cncskor.cpp) segment CNCSKOR_TEXT

    24 4F43:0003    26 4F43:000B    28 4F43:001D    30 4F43:0209
    31 4F43:021B    32 4F43:021E    33 4F43:0230    34 4F43:0233
    35 4F43:0245    36 4F43:0248    37 4F43:025A    38 4F43:025D
    39 4F43:026F    40 4F43:0272    41 4F43:0284    42 4F43:0287
    43 4F43:0299    44 4F43:029C    45 4F43:02AE    46 4F43:02B1
    47 4F43:02C3    48 4F43:02C6    49 4F43:02D8    50 4F43:02DB
    51 4F43:02ED    52 4F43:02F0    53 4F43:0302    54 4F43:0305
    55 4F43:0317    56 4F43:031A    57 4F43:032C    58 4F43:032F
    59 4F43:0341    60 4F43:0344    61 4F43:0356    62 4F43:0359
    63 4F43:036B    64 4F43:036E    65 4F43:0380    66 4F43:0383
    67 4F43:0395    68 4F43:0398    69 4F43:03AA    70 4F43:03AD
    71 4F43:03BF    72 4F43:03C2    73 4F43:03D4    74 4F43:03D7
    75 4F43:03E9    76 4F43:03EC    77 4F43:03FE    78 4F43:0401
    79 4F43:0413    80 4F43:0416    81 4F43:0428    82 4F43:042B
    83 4F43:043D    84 4F43:0440    85 4F43:0452    86 4F43:0455
    87 4F43:0467    88 4F43:046A    89 4F43:047C    90 4F43:047F
    91 4F43:0491    92 4F43:0494    93 4F43:04A6    94 4F43:04A9
    95 4F43:04BB    96 4F43:04BE    97 4F43:04D0    98 4F43:04D3
    99 4F43:04E5   100 4F43:04E8   101 4F43:04FA   102 4F43:04FD
   103 4F43:050F   104 4F43:0512   105 4F43:0524   106 4F43:0527
   107 4F43:0539   108 4F43:053C   109 4F43:054E   110 4F43:0551
   111 4F43:0563   112 4F43:0566   113 4F43:0578   114 4F43:057B
   115 4F43:058D   116 4F43:0590   117 4F43:05A2   118 4F43:05A5
   119 4F43:05B7   120 4F43:05BA   121 4F43:05CC   122 4F43:05CF
   123 4F43:05E1   124 4F43:05E4   125 4F43:05F6   126 4F43:05F9
   127 4F43:060B   128 4F43:060E   129 4F43:0620   130 4F43:0623
   131 4F43:0635   132 4F43:0638   133 4F43:064A   134 4F43:064D
   135 4F43:065F   136 4F43:0662   137 4F43:0674   138 4F43:0677
   139 4F43:0689   140 4F43:068C   141 4F43:069E   142 4F43:06A1
   143 4F43:06B3   144 4F43:06B6   145 4F43:06C8   146 4F43:06CB
   147 4F43:06DD   148 4F43:06E0   149 4F43:06F2   150 4F43:06F5
   151 4F43:0707   152 4F43:070A   153 4F43:071C   154 4F43:071F
   155 4F43:0731   156 4F43:0734   157 4F43:0746   158 4F43:0749
   159 4F43:075B   160 4F43:075E   161 4F43:0770   162 4F43:0773
   163 4F43:0785   164 4F43:0788   165 4F43:079A   166 4F43:079D
   167 4F43:07AF   168 4F43:07B2   169 4F43:07C4   170 4F43:07C7
   171 4F43:07D9   172 4F43:07DB   173 4F43:07ED   174 4F43:07EF
   175 4F43:0801   176 4F43:0803   177 4F43:0815   178 4F43:0817
   179 4F43:0829   180 4F43:082B   181 4F43:083D   183 4F43:083F
   184 4F43:0852   186 4F43:0855   188 4F43:08CD   190 4F43:08D2
   193 4F43:08E2   194 4F43:08E7   196 4F43:08F2   197 4F43:08FE
   200 4F43:0907   202 4F43:090C   203 4F43:0918   205 4F43:0921
   206 4F43:092C   208 4F43:0937   209 4F43:0956   210 4F43:0968
   211 4F43:0976   213 4F43:097F   215 4F43:0984   216 4F43:0998
   217 4F43:09AA   219 4F43:09B3   221 4F43:09B8   222 4F43:09CC
   223 4F43:09DE   225 4F43:09E7   227 4F43:09EC   228 4F43:09F8
   229 4F43:0A0C   230 4F43:0A1E   232 4F43:0A22   234 4F43:0A2A
   235 4F43:0A36   237 4F43:0A48   238 4F43:0A54   239 4F43:0A5F
   240 4F43:0A6B   242 4F43:0A7B   243 4F43:0A8D   245 4F43:0A96
   247 4F43:0A9B   248 4F43:0AA7   250 4F43:0AC6   251 4F43:0AD8
   253 4F43:0AE1   255 4F43:0AE6   256 4F43:0AFA   257 4F43:0B0C
   259 4F43:0B15   261 4F43:0B1A   262 4F43:0B2E   263 4F43:0B40
   265 4F43:0B49   267 4F43:0B4E   269 4F43:0B62   270 4F43:0B74
   272 4F43:0B7D   274 4F43:0B82   275 4F43:0B96   277 4F43:0B9F
   279 4F43:0BA4   280 4F43:0BBE   282 4F43:0BC2   284 4F43:0BC7
   285 4F43:0BD8   286 4F43:0BE8   288 4F43:0BEC   290 4F43:0BF1
   292 4F43:0BFD   294 4F43:0C12   295 4F43:0C30   296 4F43:0C37
   297 4F43:0C3E   300 4F43:0C4F   301 4F43:0C62   303 4F43:0C66
   306 4F43:0C80   307 4F43:0C92   309 4F43:0C96   311 4F43:0C9B
   312 4F43:0CAC   313 4F43:0CBC   316 4F43:0CC0   318 4F43:0CC5
   319 4F43:0CD6   320 4F43:0CE6   324 4F43:0CEF   326 4F43:0CF4
   327 4F43:0D00   329 4F43:0D09   330 4F43:0D14   332 4F43:0D1F
   334 4F43:0D3E   335 4F43:0D50   336 4F43:0D5E   338 4F43:0D67
   340 4F43:0D6C   341 4F43:0D80   342 4F43:0D92   344 4F43:0D9B
   346 4F43:0DA0   347 4F43:0DB4   348 4F43:0DC6   350 4F43:0DCF
   352 4F43:0DD4   353 4F43:0DE0   354 4F43:0DF4   355 4F43:0E06
   357 4F43:0E0A   359 4F43:0E12   360 4F43:0E1E   362 4F43:0E30
   363 4F43:0E3C   364 4F43:0E47   365 4F43:0E53   367 4F43:0E63
   368 4F43:0E75   370 4F43:0E7E   372 4F43:0E83   373 4F43:0E8F
   375 4F43:0EAE   376 4F43:0EC0   378 4F43:0EC9   380 4F43:0ECE
   381 4F43:0EE2   382 4F43:0EF4   384 4F43:0EFD   386 4F43:0F02
   387 4F43:0F16   388 4F43:0F28   390 4F43:0F31   392 4F43:0F36
   394 4F43:0F4A   395 4F43:0F5C   397 4F43:0F65   399 4F43:0F6A
   400 4F43:0F7E   402 4F43:0F87   404 4F43:0F8C   405 4F43:0FA6
   407 4F43:0FAA   409 4F43:0FAF   410 4F43:0FC0   411 4F43:0FD0
   413 4F43:0FD4   415 4F43:0FD9   417 4F43:0FE5   419 4F43:0FFA
   420 4F43:1018   421 4F43:101F   422 4F43:1026   425 4F43:1037
   426 4F43:104A   428 4F43:104E   431 4F43:1068   432 4F43:107A
   434 4F43:107E   436 4F43:1083   437 4F43:1094   438 4F43:10A4
   440 4F43:10A8   442 4F43:10AD   443 4F43:10BE   444 4F43:10CE
   448 4F43:10D7   450 4F43:10DC   451 4F43:10E8   453 4F43:10F1
   454 4F43:10FC   456 4F43:1107   458 4F43:1126   459 4F43:1138
   460 4F43:1146   463 4F43:114F   465 4F43:1154   466 4F43:1168
   467 4F43:117A   470 4F43:1183   472 4F43:1188   473 4F43:119C
   474 4F43:11AE   476 4F43:11B7   478 4F43:11BC   479 4F43:11C8
   480 4F43:11DC   481 4F43:11EE   483 4F43:11F2   485 4F43:11FA
   486 4F43:1206   488 4F43:1218   489 4F43:1224   490 4F43:122F
   491 4F43:123B   493 4F43:124B   494 4F43:125D   496 4F43:1266
   498 4F43:126B   499 4F43:1277   501 4F43:1296   502 4F43:12A8
   504 4F43:12B1   506 4F43:12B6   507 4F43:12CA   508 4F43:12DC
   510 4F43:12E5   512 4F43:12EA   513 4F43:12FE   514 4F43:1310
   516 4F43:1319   518 4F43:131E   520 4F43:1332   521 4F43:1344
   523 4F43:134D   525 4F43:1352   526 4F43:1366   528 4F43:136F
   530 4F43:1374   531 4F43:138E   533 4F43:1392   535 4F43:1397
   536 4F43:13A8   537 4F43:13B8   539 4F43:13BC   541 4F43:13C1
   543 4F43:13CD   545 4F43:13E2   546 4F43:1400   547 4F43:1407
   548 4F43:140E   551 4F43:141F   552 4F43:1432   554 4F43:1436
   557 4F43:1450   558 4F43:1462   560 4F43:1466   562 4F43:146B
   563 4F43:147C   564 4F43:148C   566 4F43:1490   568 4F43:1495
   569 4F43:14A6   570 4F43:14B6   573 4F43:14BF   575 4F43:14C4
   576 4F43:14D0   578 4F43:14D9   579 4F43:14E4   581 4F43:14EF
   583 4F43:150E   584 4F43:1520   585 4F43:152E   587 4F43:1537
   589 4F43:153C   590 4F43:1550   591 4F43:1562   593 4F43:156B
   595 4F43:1570   596 4F43:1584   597 4F43:1596   599 4F43:159F
   601 4F43:15A4   602 4F43:15B0   603 4F43:15C4   604 4F43:15D6
   606 4F43:15DA   608 4F43:15E2   609 4F43:15EE   611 4F43:1600
   612 4F43:160C   613 4F43:1617   614 4F43:1623   616 4F43:1633
   617 4F43:1645   619 4F43:164E   621 4F43:1653   622 4F43:165F
   624 4F43:167E   625 4F43:1690   627 4F43:1699   629 4F43:169E
   630 4F43:16B2   631 4F43:16C4   633 4F43:16CD   635 4F43:16D2
   636 4F43:16E6   637 4F43:16F8   639 4F43:1701   641 4F43:1706
   643 4F43:171A   644 4F43:172C   646 4F43:1735   648 4F43:173A
   649 4F43:174E   651 4F43:1757   653 4F43:175C   654 4F43:1776
   656 4F43:177A   658 4F43:177F   659 4F43:1790   660 4F43:17A0
   662 4F43:17A4   664 4F43:17A9   666 4F43:17B5   668 4F43:17CA
   669 4F43:17E8   670 4F43:17EF   671 4F43:17F6   674 4F43:1807
   675 4F43:181A   677 4F43:181E   680 4F43:1838   681 4F43:184A
   683 4F43:184E   685 4F43:1853   686 4F43:1864   687 4F43:1874
   689 4F43:1878   691 4F43:187D   692 4F43:188E   693 4F43:189E
   696 4F43:18A7   698 4F43:18AC   699 4F43:18B8   701 4F43:18C1
   702 4F43:18CC   704 4F43:18D7   706 4F43:18F6   707 4F43:1908
   708 4F43:1916   710 4F43:191F   712 4F43:1924   713 4F43:1938
   714 4F43:194A   716 4F43:1953   718 4F43:1958   719 4F43:196C
   720 4F43:197E   722 4F43:1987   724 4F43:198C   725 4F43:1998
   726 4F43:19AC   727 4F43:19BE   729 4F43:19C2   731 4F43:19CA
   732 4F43:19D6   734 4F43:19E8   735 4F43:19F4   736 4F43:19FF
   737 4F43:1A0B   739 4F43:1A1B   740 4F43:1A2D   742 4F43:1A36
   744 4F43:1A3B   745 4F43:1A47   747 4F43:1A66   748 4F43:1A78
   750 4F43:1A81   752 4F43:1A86   753 4F43:1A9A   754 4F43:1AAC
   756 4F43:1AB5   758 4F43:1ABA   759 4F43:1ACE   760 4F43:1AE0
   762 4F43:1AE9   764 4F43:1AEE   766 4F43:1B02   767 4F43:1B14
   769 4F43:1B1D   771 4F43:1B22   772 4F43:1B36   774 4F43:1B3F
   776 4F43:1B44   777 4F43:1B5E   779 4F43:1B62   781 4F43:1B67
   782 4F43:1B78   783 4F43:1B88   785 4F43:1B8C   787 4F43:1B91
   789 4F43:1B9D   791 4F43:1BB2   792 4F43:1BD0   793 4F43:1BD7
   794 4F43:1BDE   797 4F43:1BEF   798 4F43:1C02   800 4F43:1C06
   803 4F43:1C20   804 4F43:1C32   806 4F43:1C36   808 4F43:1C3B
   809 4F43:1C4C   810 4F43:1C5C   812 4F43:1C60   814 4F43:1C65
   815 4F43:1C76   816 4F43:1C86
Line numbers for cncsjog.obj(..\cncshow\cncsjog.cpp) segment CNCSJOG_TEXT

    28 510B:000A    30 510B:0015    31 510B:002F    32 510B:0038
    37 510B:003C    44 510B:0041    49 510B:0058    51 510B:0061
    52 510B:0077    53 510B:00B0    54 510B:00B5    55 510B:00BD
    60 510B:00CA    67 510B:00DC    68 510B:00F2    69 510B:0124
    72 510B:0130    73 510B:0157    74 510B:015D    76 510B:0169
Line numbers for cncshow.obj(..\cncshow\cncshow.cpp) segment CNCSHOW_TEXT

    41 5123:0023    43 5123:0028    44 5123:0033    45 5123:003E
    46 5123:0049    47 5123:004E    48 5123:0076    49 5123:0082
    50 5123:0087    51 5123:0094    53 5123:00A2    54 5123:00AF
    56 5123:00D1    58 5123:00E5    59 5123:00F0    64 5123:00F4
    66 5123:00FC    67 5123:010C    68 5123:010E    70 5123:0130
    71 5123:0139    72 5123:0143    73 5123:0146    74 5123:014F
    75 5123:0159    76 5123:015C    77 5123:0165    78 5123:016F
    79 5123:0171    80 5123:017A    81 5123:0184    82 5123:0186
    83 5123:018F    86 5123:0193    88 5123:01AD    89 5123:01B6
    90 5123:01B8    91 5123:01C1    92 5123:01C3    93 5123:01CC
    94 5123:01CE    95 5123:01D7    96 5123:01D9    99 5123:01E2
   102 5123:01F0   106 5123:01F2   108 5123:0200   109 5123:021D
   113 5123:0222   115 5123:0229   116 5123:022E   118 5123:0233
   119 5123:0243   120 5123:0254   122 5123:0258   124 5123:0268
   125 5123:0273   127 5123:027E   130 5123:02AF   131 5123:02BA
   132 5123:02C8   137 5123:02CB   142 5123:02D3   144 5123:02E8
   145 5123:02FA   146 5123:030C   147 5123:031E   148 5123:0330
   149 5123:0342   151 5123:0344   152 5123:036C   153 5123:038B
   154 5123:039A
Line numbers for cncsgstr.obj(..\cncshow\cncsgstr.cpp) segment CNCSGSTR_TEXT

    26 515D:0050    35 515D:0059    36 515D:0062    37 515D:0067
    39 515D:0080    40 515D:008E    41 515D:0093    48 515D:00A5
    50 515D:00AE    51 515D:00C1    55 515D:00FD    57 515D:0106
    61 515D:0122    62 515D:014F    63 515D:0160    64 515D:016E
    65 515D:0186    68 515D:01A5    70 515D:01AC    72 515D:01BE
    75 515D:01DA    76 515D:01FA    81 515D:0221    84 515D:023E
    85 515D:0271    86 515D:02A6    90 515D:02BA    94 515D:0303
    95 515D:0317    96 515D:031D    98 515D:0328    99 515D:032A
   101 515D:0344   103 515D:0349   104 515D:035A   108 515D:0363
   111 515D:0368   112 515D:0376   113 515D:039E   114 515D:03B2
   115 515D:03B7   116 515D:03D5   117 515D:03FD   119 515D:0410
   126 515D:0414   128 515D:0419   129 515D:041E   130 515D:044A
   132 515D:044E   134 515D:0453   136 515D:045B   137 515D:0487
   139 515D:048B   141 515D:0490   142 515D:04BC   144 515D:04C0
   146 515D:04C5   147 515D:04F1   149 515D:04FB   151 515D:0503
   152 515D:050B   153 515D:0513   154 515D:0541   155 515D:0571
   156 515D:05A1   157 515D:05A8   158 515D:05DA   159 515D:060A
   160 515D:0611   161 515D:0643   162 515D:0673   163 515D:067A
   164 515D:06AC   165 515D:06DE   167 515D:06E2   169 515D:06E4
   173 515D:06F2   175 515D:06F5   177 515D:06F7   178 515D:0705
   186 515D:0708   188 515D:070D   190 515D:0714   191 515D:0719
   193 515D:0747   194 515D:074C   198 515D:0750   200 515D:0755
   202 515D:075C   203 515D:0788   205 515D:07B0
Line numbers for cncsgsc.obj(..\cncshow\cncsgsc.cpp) segment CNCSGSC_TEXT

    36 51D8:0004    40 51D8:001D    41 51D8:001E    42 51D8:0035
    43 51D8:0041    47 51D8:0042    49 51D8:004E    51 51D8:0052
    52 51D8:0055    54 51D8:006B    55 51D8:0079    56 51D8:0087
    57 51D8:0095    58 51D8:00A3    59 51D8:00B1    61 51D8:00BF
    64 51D8:00C2    68 51D8:00D8    69 51D8:00E5    72 51D8:0123
    73 51D8:015A    75 51D8:0165    76 51D8:0170    80 51D8:0173
    81 51D8:0180    84 51D8:01D2    85 51D8:021A    87 51D8:0225
    88 51D8:0230    92 51D8:0233    93 51D8:0240    96 51D8:0292
    97 51D8:02DA    99 51D8:02E5   100 51D8:02F0   104 51D8:02F3
   105 51D8:0300   108 51D8:0352   109 51D8:039A   111 51D8:03A5
   112 51D8:03B0   114 51D8:03B3   115 51D8:03BE   116 51D8:03C1
   118 51D8:03CE   119 51D8:03ED   120 51D8:03EF   121 51D8:03FA
   122 51D8:03FC   123 51D8:0446   126 51D8:0469   129 51D8:048D
   130 51D8:0499   132 51D8:049B   137 51D8:04DB   144 51D8:04DD
   146 51D8:04E6   147 51D8:04F1   150 51D8:04F6   151 51D8:04FD
   153 51D8:0501   154 51D8:0508   156 51D8:051C   157 51D8:0520
   158 51D8:0524   159 51D8:0528   160 51D8:052C   161 51D8:0530
   162 51D8:0534   163 51D8:0538   164 51D8:053C   165 51D8:0540
   166 51D8:0544   167 51D8:0548   168 51D8:054C   169 51D8:0550
   170 51D8:0554   171 51D8:0558   172 51D8:055C   176 51D8:0560
   178 51D8:0570   179 51D8:0580   180 51D8:0582   186 51D8:05B7
   189 51D8:05B9   193 51D8:05C4   194 51D8:05DE   197 51D8:05E9
   199 51D8:0603   200 51D8:060D   201 51D8:0618   205 51D8:061C
   206 51D8:0622   208 51D8:0624
Line numbers for cncsgeom.obj(..\cncshow\cncsgeom.cpp) segment CNCSGEOM_TEXT

    46 523A:0007    49 523A:000F    56 523A:0015    57 523A:001B
    58 523A:0030    61 523A:0061    62 523A:0067    64 523A:006F
    66 523A:007F    67 523A:00A7    68 523A:00B5    76 523A:00C1
    77 523A:00D2    79 523A:00E7    83 523A:00FE    85 523A:010D
    86 523A:0110    88 523A:0116    89 523A:014B    90 523A:014F
    93 523A:0151    94 523A:0186    98 523A:018B    81 523A:019E
    80 523A:01A9   100 523A:01CA   104 523A:01D5   111 523A:01DE
   113 523A:01F8   114 523A:0206   116 523A:020C   118 523A:0212
   120 523A:0216   121 523A:0228   124 523A:0254   126 523A:027A
   127 523A:02A8   128 523A:02C6   129 523A:0307   130 523A:0310
   135 523A:0318   136 523A:0336   137 523A:0349   139 523A:0378
   140 523A:03B8   141 523A:03BD   142 523A:03C4   144 523A:03D4
   145 523A:03DA   146 523A:03DE   147 523A:040A   146 523A:0410
   148 523A:041A   149 523A:042D   150 523A:0446   151 523A:0457
   153 523A:045D   154 523A:0485   155 523A:048C   154 523A:04AC
   156 523A:04C1   159 523A:04C3   160 523A:04EB   161 523A:04FF
   163 523A:050D   167 523A:0511   181 523A:0519   182 523A:0528
   184 523A:0533   185 523A:0547   182 523A:0560   187 523A:0570
   190 523A:057E   195 523A:0587   196 523A:0595   197 523A:05A7
   198 523A:05E4   199 523A:05F1   203 523A:05F5   205 523A:05FA
   210 523A:0628   212 523A:062D   213 523A:062F   217 523A:0633
   222 523A:063C   223 523A:064E   225 523A:0652   227 523A:0658
   228 523A:0680   229 523A:0687   228 523A:06A6   230 523A:06BB
   233 523A:06BD   234 523A:06E5   235 523A:06F9   237 523A:0707
Line numbers for cncsgdc.obj(..\cncshow\cncsgdc.cpp) segment CNCSGDC_TEXT

    16 52AA:000B    18 52AA:000D    19 52AA:000F
Line numbers for cncsfun.obj(..\cncshow\cncsfun.cpp) segment CNCSFUN_TEXT

    30 52AB:0022    32 52AB:0027    34 52AB:0030    35 52AB:003B
    36 52AB:0063    37 52AB:006F    39 52AB:0089    42 52AB:008D
    45 52AB:0095    46 52AB:009D    47 52AB:00A0    51 52AB:00A4
    54 52AB:00BD    55 52AB:00BE    56 52AB:00C2    58 52AB:00C7
    59 52AB:00D6    60 52AB:00E1    61 52AB:00EC    63 52AB:00F2
    64 52AB:00FF    65 52AB:010C    66 52AB:0119    67 52AB:0126
    70 52AB:0128    71 52AB:0133    72 52AB:013E    73 52AB:0149
    75 52AB:0154    76 52AB:0155    78 52AB:0165    80 52AB:016A
    81 52AB:0175    82 52AB:017B    83 52AB:0186    84 52AB:0191
    85 52AB:019E    86 52AB:01AB    87 52AB:01B8    88 52AB:01C5
    91 52AB:01C9    93 52AB:01DD    94 52AB:01F4    95 52AB:01F6
    98 52AB:0206   100 52AB:0208   101 52AB:020B   104 52AB:020E
   106 52AB:0213   107 52AB:021F   108 52AB:022D   109 52AB:0231
   110 52AB:023F   113 52AB:0243   115 52AB:0245   116 52AB:0271
   120 52AB:0274   122 52AB:027C   123 52AB:0289   124 52AB:0294
   128 52AB:0298   130 52AB:02A0   131 52AB:02AD   132 52AB:02B8
Line numbers for cncsfspr.obj(..\cncshow\cncsfspr.cpp) segment CNCSFSPR_TEXT

    35 52D6:000C    37 52D6:0011    38 52D6:001F    39 52D6:0024
    40 52D6:0029    44 52D6:00B5    55 52D6:00BE    59 52D6:00D0
    60 52D6:00F8    61 52D6:010E    62 52D6:0125    63 52D6:014D
    65 52D6:0160    66 52D6:0170    67 52D6:017E    68 52D6:0190
    63 52D6:01A7    71 52D6:01B9    72 52D6:01E1    73 52D6:01F0
    74 52D6:0214    75 52D6:023C    77 52D6:0250    81 52D6:02E4
    82 52D6:030C    83 52D6:0320    88 52D6:032F    89 52D6:0350
    90 52D6:0388    92 52D6:03AE    94 52D6:03D0    95 52D6:03EC
    97 52D6:03F8   102 52D6:03FC   114 52D6:0401   115 52D6:0429
   116 52D6:0445   117 52D6:045D   118 52D6:0485   119 52D6:04AB
   120 52D6:04B1   122 52D6:04B5   123 52D6:04BF   127 52D6:04C3
   131 52D6:04CB   132 52D6:04D3   133 52D6:04DB   134 52D6:04E8
   136 52D6:04F4   137 52D6:0509   141 52D6:0511   142 52D6:0539
   134 52D6:0543   145 52D6:0552   146 52D6:057A   147 52D6:0588
   148 52D6:0597   151 52D6:059B   155 52D6:05A3   156 52D6:05CB
   159 52D6:05EB   161 52D6:05FC   162 52D6:0609   163 52D6:061D
   165 52D6:0621   166 52D6:062B   167 52D6:0638   168 52D6:064F
   170 52D6:0653   171 52D6:065D   172 52D6:066A   173 52D6:067E
   175 52D6:0682   157 52D6:068C   178 52D6:06A4   182 52D6:06A8
   189 52D6:06B1   191 52D6:06D2   192 52D6:06E0   193 52D6:0708
   194 52D6:071F   195 52D6:0731   196 52D6:0735   197 52D6:0747
   198 52D6:074C   200 52D6:0762   202 52D6:0778   204 52D6:077E
   205 52D6:0796   206 52D6:07C7   207 52D6:07D5   210 52D6:07D7
   211 52D6:07EF   212 52D6:0820   198 52D6:082E   216 52D6:0847
   217 52D6:086F   218 52D6:087D   219 52D6:088B   220 52D6:0899
   221 52D6:08A7   223 52D6:08B3   227 52D6:08B7   232 52D6:08BF
   234 52D6:08CE   236 52D6:08DE   237 52D6:08EC   238 52D6:0914
   240 52D6:092B   242 52D6:0932   243 52D6:095A   244 52D6:0971
   245 52D6:09A0   240 52D6:09AD   247 52D6:09C2   249 52D6:09D0
   251 52D6:09EA   262 52D6:09F2   264 52D6:0A01   266 52D6:0A13
   267 52D6:0A3B   276 52D6:0A58   277 52D6:0A66   278 52D6:0A73
   279 52D6:0A83   280 52D6:0A90   281 52D6:0AA2   282 52D6:0AAF
   286 52D6:0AB1   288 52D6:0AC1   289 52D6:0ACF   286 52D6:0ADD
   294 52D6:0AEE   296 52D6:0B20   297 52D6:0B65   300 52D6:0B77
Line numbers for cncsfh.obj(..\cncshow\cncsfh.cpp) segment CNCSFH_TEXT

    61 538D:000B    65 538D:0013    67 538D:0024    68 538D:002B
    70 538D:0033    72 538D:0044    73 538D:0053    75 538D:0056
    76 538D:005E    77 538D:006B    78 538D:006E    79 538D:0073
    80 538D:0076    81 538D:007B    83 538D:007E    84 538D:00AA
    85 538D:00E1    86 538D:0108    88 538D:010B    89 538D:0137
    90 538D:016E    91 538D:0195    92 538D:0197    93 538D:01A5
    94 538D:01AA    95 538D:01AC    96 538D:01B1    97 538D:01B3
    98 538D:01BF    99 538D:01C1   100 538D:01C6   101 538D:01C8
   102 538D:01D4   104 538D:01E5   105 538D:01E8   108 538D:0208
   111 538D:020D   114 538D:021D   116 538D:0228   118 538D:0230
   119 538D:023A   121 538D:0245   126 538D:024A   129 538D:0258
   130 538D:0263   135 538D:0267   136 538D:027E   146 538D:0282
   150 538D:0292   152 538D:029D   153 538D:02A7   155 538D:02B2
   159 538D:02B7   161 538D:02B9   165 538D:02D2   172 538D:02DB
   175 538D:02ED   176 538D:0305   177 538D:0332   178 538D:034F
   180 538D:0367   181 538D:0390   183 538D:03BD   185 538D:03D2
   187 538D:03EA   189 538D:03F5   190 538D:040B   192 538D:0411
   193 538D:0439   194 538D:0447   195 538D:0467   198 538D:046A
   199 538D:0477   200 538D:048E   202 538D:049E   203 538D:04A3
   204 538D:04AE   206 538D:04B9   214 538D:04BF   217 538D:04C7
   218 538D:04D6   219 538D:04DA   222 538D:04F6   223 538D:051E
   224 538D:052C   225 538D:054C   226 538D:0559   227 538D:0566
   230 538D:056D   231 538D:059A   233 538D:05AA   235 538D:05B5
   237 538D:05C5   238 538D:05CA   239 538D:05D5   241 538D:05E0
   242 538D:05E5   243 538D:05EB   244 538D:05F1   246 538D:05F6
   214 538D:0607   249 538D:0612   250 538D:063A   251 538D:0648
   252 538D:0668   254 538D:066A   257 538D:0672   261 538D:067B
   262 538D:0693   263 538D:06C0   264 538D:06D1   265 538D:06E8
   268 538D:06F1   274 538D:06FA   275 538D:0726   278 538D:073F
   279 538D:0765   281 538D:0773   282 538D:0784   285 538D:078E
   289 538D:0797   290 538D:07AE   291 538D:07DA   292 538D:0806
   294 538D:0819   297 538D:082A   298 538D:0841   299 538D:0858
   302 538D:0861   307 538D:086A   308 538D:0882   309 538D:08AF
   310 538D:08D8   313 538D:08DC   315 538D:08E1   317 538D:08EA
   319 538D:08F7   320 538D:0904   323 538D:0910   324 538D:091A
   325 538D:0925   328 538D:0931   331 538D:093A   334 538D:094A
   335 538D:0957   337 538D:0963   338 538D:096D   339 538D:0979
   341 538D:097B   343 538D:0992   346 538D:09AB   352 538D:09B4
   353 538D:09BF   355 538D:09CA   356 538D:09F1   357 538D:0A0C
   361 538D:0A21   362 538D:0A4C   364 538D:0A64   365 538D:0A75
   366 538D:0A86   367 538D:0A96   368 538D:0AA2   370 538D:0AB2
   371 538D:0AB7   372 538D:0AC2   374 538D:0ACD   376 538D:0AD8
   380 538D:0AEF   387 538D:0AF8   388 538D:0B20   389 538D:0B2E
   390 538D:0B3A   391 538D:0B62   392 538D:0B67   393 538D:0B8F
   394 538D:0B9D   395 538D:0BB4   396 538D:0BC2   397 538D:0BD9
   398 538D:0C01   399 538D:0C0F   400 538D:0C22   401 538D:0C2E
   402 538D:0C41   403 538D:0C69   406 538D:0C6E   407 538D:0C96
   408 538D:0CB2   411 538D:0CC7   412 538D:0CD7   411 538D:0CEC
   413 538D:0CF5   415 538D:0CFA   417 538D:0D22   419 538D:0D34
   420 538D:0D3F   421 538D:0D56   427 538D:0D64   428 538D:0D81
   430 538D:0D91   431 538D:0DC0   434 538D:0DDF   435 538D:0E07
   436 538D:0E18   438 538D:0E26   439 538D:0E29   440 538D:0E37
   441 538D:0E5F   443 538D:0E6A   444 538D:0E77   441 538D:0E7C
   447 538D:0E85   448 538D:0E91   452 538D:0EC1   456 538D:0EC9
   457 538D:0ED0   456 538D:0EDD   459 538D:0EF4   458 538D:0F02
   460 538D:0F0B   469 538D:0F76   472 538D:0F7A   474 538D:0F7F
   476 538D:0F8F   478 538D:0F94   479 538D:0FA0   488 538D:0FA4
   490 538D:0FA9   492 538D:0FB9   494 538D:0FBE   495 538D:0FCA
   503 538D:0FCE   506 538D:0FD6   507 538D:0FE4   508 538D:0FF0
   509 538D:0FFE   510 538D:1012   511 538D:1024   512 538D:1038
   513 538D:1047   514 538D:1054   515 538D:1063   518 538D:1067
   521 538D:1069   522 538D:106E   521 538D:1070   523 538D:1075
   527 538D:1078   532 538D:107D   533 538D:109B   534 538D:10A6
   537 538D:10E1   538 538D:10E7   540 538D:10F7   541 538D:1102
   543 538D:110D   544 538D:1118   545 538D:1128   546 538D:112D
   547 538D:1134   553 538D:116B   554 538D:1178   555 538D:1184
   556 538D:118F   558 538D:1195   559 538D:119A   560 538D:11A7
   562 538D:11AD   563 538D:11CB   564 538D:11D6   565 538D:11E1
   566 538D:11EC   567 538D:11F2   571 538D:11FC   572 538D:120C
   575 538D:121A   582 538D:121F   584 538D:1228   585 538D:122D
   587 538D:1232   589 538D:1248   590 538D:125F   591 538D:1263
   593 538D:1273   594 538D:1283   595 538D:1288   598 538D:12BE
   599 538D:12DA   600 538D:12F4   601 538D:1301   603 538D:1306
   604 538D:130D   609 538D:1344   610 538D:134F   611 538D:135A
   612 538D:1361   618 538D:13E2   622 538D:1419   626 538D:142D
   627 538D:1438   628 538D:143F   632 538D:146E   633 538D:14A6
   634 538D:14B1   635 538D:14CB   636 538D:14D6   637 538D:14E6
   638 538D:14F1   639 538D:150C   646 538D:1526   650 538D:152B
   653 538D:1562   654 538D:1568   655 538D:1573   656 538D:158E
   658 538D:159B   659 538D:15A7   660 538D:15AE   666 538D:15DE
   667 538D:15EA   668 538D:15F5   669 538D:1610   670 538D:161B
   671 538D:162B   672 538D:1631   679 538D:1639   684 538D:1641
   687 538D:167F   688 538D:169B   689 538D:16A8   690 538D:16B3
   691 538D:16BA   697 538D:16EF   698 538D:16FB   699 538D:1706
   700 538D:1711   701 538D:171D   702 538D:172D   703 538D:1748
   711 538D:1750   717 538D:1758   718 538D:1761   719 538D:1766
   721 538D:177C   722 538D:1793   723 538D:1797   725 538D:17A7
   728 538D:17DD   729 538D:17E3   730 538D:17FD   731 538D:180A
   732 538D:1811   737 538D:1848   738 538D:185F   739 538D:1866
   743 538D:188E   744 538D:1899   747 538D:18A1   748 538D:18AD
   749 538D:18B9   750 538D:18C6   751 538D:18D2   752 538D:18DF
   753 538D:18EC   754 538D:18F7   755 538D:1911   756 538D:1930
   757 538D:1940   758 538D:1946   765 538D:195A   770 538D:195F
   771 538D:1968   772 538D:196D   774 538D:1983   775 538D:199A
   776 538D:199E   778 538D:19AE   781 538D:19E4   782 538D:19EA
   783 538D:1A05   784 538D:1A12   785 538D:1A19   790 538D:1A50
   791 538D:1A67   792 538D:1A6E   796 538D:1A96   797 538D:1AA1
   800 538D:1AA9   801 538D:1AB5   802 538D:1AC0   803 538D:1ADB
   804 538D:1B0F   805 538D:1B1F   812 538D:1B33   819 538D:1B3B
   821 538D:1B44   822 538D:1B49   824 538D:1B4E   826 538D:1B64
   827 538D:1B7B   828 538D:1B7F   830 538D:1B8F   831 538D:1B9F
   832 538D:1BA4   835 538D:1BDA   836 538D:1BE0   837 538D:1BFB
   838 538D:1C08   840 538D:1C0D   841 538D:1C14   846 538D:1C4B
   847 538D:1C56   848 538D:1C5D   854 538D:1CD4   859 538D:1D0B
   860 538D:1D18   862 538D:1D1F   863 538D:1D2F   864 538D:1D34
   865 538D:1D40   866 538D:1D4C   867 538D:1D59   868 538D:1D65
   869 538D:1D72   870 538D:1D7F   871 538D:1D8A   872 538D:1DA5
   873 538D:1DC4   874 538D:1DE6   875 538D:1DF6   876 538D:1DFC
   881 538D:1E12   887 538D:1E1A   889 538D:1E30   890 538D:1E47
   891 538D:1E4B   893 538D:1E5B   896 538D:1E8F   897 538D:1EAB
   898 538D:1EC6   899 538D:1ED3   900 538D:1EDA   906 538D:1F11
   909 538D:1F18   910 538D:1F24   911 538D:1F30   912 538D:1F3D
   913 538D:1F49   914 538D:1F56   915 538D:1F63   916 538D:1F6E
   917 538D:1F89   918 538D:1F99   919 538D:1FCD   936 538D:1FEA
   941 538D:1FF2   942 538D:2002   944 538D:2031   945 538D:2048
   946 538D:2065   947 538D:206A
Line numbers for cncsedit.obj(..\cncshow\cncsedit.cpp) segment CNCSEDIT_TEXT

    20 5593:000E    22 5593:0016    24 5593:0028    26 5593:00D2
    27 5593:00E4    28 5593:00E7    29 5593:00F9    30 5593:00FC
    31 5593:010E    32 5593:0111    33 5593:0123    34 5593:0126
    35 5593:0138    36 5593:013B    37 5593:014D    38 5593:0150
    39 5593:0162    40 5593:0165    41 5593:0177    42 5593:017A
    43 5593:018C    44 5593:018F    45 5593:01A1    46 5593:01A4
    47 5593:01B6    48 5593:01B9    49 5593:01CB    50 5593:01CE
    51 5593:01E0    52 5593:01E3    53 5593:01F5    54 5593:01F7
    55 5593:0209    56 5593:020B    57 5593:021D    58 5593:021F
    59 5593:0231    60 5593:0233    61 5593:0245    62 5593:0247
    63 5593:0259    65 5593:025B    66 5593:026E    68 5593:0271
    70 5593:0281    72 5593:0286    73 5593:0292    74 5593:02B1
    78 5593:02B9    80 5593:02BE    81 5593:02D2    82 5593:02E4
    86 5593:02EC    88 5593:02F1    89 5593:0305    90 5593:0317
    93 5593:031F    95 5593:0324    96 5593:0330    97 5593:0344
    98 5593:0356   101 5593:035A   103 5593:0362   104 5593:036E
   106 5593:0380   107 5593:038C   108 5593:0397   109 5593:03A3
   111 5593:03B3   112 5593:03C5   115 5593:03CD   117 5593:03D2
   118 5593:03DE   119 5593:03FD   120 5593:040F   123 5593:0417
   125 5593:041C   126 5593:0430   127 5593:0442   130 5593:044A
   132 5593:044F   133 5593:0463   134 5593:0475   137 5593:047D
   139 5593:0482   141 5593:0496   142 5593:04A8   145 5593:04B0
   147 5593:04B5   148 5593:04C9   151 5593:04CD   153 5593:04D2
   155 5593:04DE   156 5593:04F0   158 5593:04F4   160 5593:04F9
   162 5593:0505   163 5593:0517   165 5593:051B   167 5593:0520
   169 5593:052C   170 5593:053E   172 5593:0542   174 5593:0547
   176 5593:0553   177 5593:0565   179 5593:0569   181 5593:056E
   183 5593:057A   184 5593:058C   186 5593:0590   188 5593:0595
   190 5593:05A1   191 5593:05B3   193 5593:05B7   195 5593:05BC
   197 5593:05C8   198 5593:05DA   200 5593:05DE   202 5593:05E3
   204 5593:05EF   205 5593:0601   207 5593:0605   209 5593:060A
   211 5593:0616   212 5593:0628
Line numbers for cncsdiag.obj(..\cncshow\cncsdiag.cpp) segment CNCSDIAG_TEXT

    40 55F5:000C    42 55F5:0014    44 55F5:0026    46 55F5:0089
    47 55F5:009B    48 55F5:009E    49 55F5:00B0    50 55F5:00B3
    51 55F5:00C5    52 55F5:00C8    53 55F5:00CD    54 55F5:00D0
    55 55F5:00E2    56 55F5:00E5    57 55F5:00F7    58 55F5:00FA
    59 55F5:00FF    60 55F5:0102    61 55F5:0114    62 55F5:0117
    63 55F5:0129    64 55F5:012C    65 55F5:013E    66 55F5:0141
    67 55F5:0153    68 55F5:0155    69 55F5:0167    70 55F5:0169
    71 55F5:017B    72 55F5:017D    73 55F5:018F    74 55F5:0191
    75 55F5:01A3    76 55F5:01A5    77 55F5:01B7    79 55F5:01B9
    80 55F5:01CC    82 55F5:01CF    84 55F5:0203    86 55F5:0208
    88 55F5:0218    90 55F5:0223    93 55F5:0228    95 55F5:0234
    98 55F5:0257    99 55F5:027F   100 55F5:02AA   102 55F5:02AC
   103 55F5:02D4   104 55F5:02FF   106 55F5:0301   107 55F5:0306
   108 55F5:0308   110 55F5:0313   112 55F5:031E   114 55F5:0322
   116 55F5:0327   117 55F5:0335   118 55F5:0341   120 55F5:0351
   121 55F5:0356   123 55F5:0361   124 55F5:036F   125 55F5:0397
   126 55F5:039C   127 55F5:03AA   128 55F5:03B8   129 55F5:03CA
   131 55F5:0401   133 55F5:0409   134 55F5:0417   135 55F5:0423
   138 55F5:0433   139 55F5:0438   140 55F5:0451   141 55F5:0474
   142 55F5:0481   145 55F5:048C   146 55F5:049A   147 55F5:04AC
   149 55F5:04B0   152 55F5:04B2   153 55F5:04C8   154 55F5:04CD
   155 55F5:04D7   157 55F5:04DA   159 55F5:04DF   160 55F5:04EB
   161 55F5:04F9   162 55F5:0509   164 55F5:050E   166 55F5:0513
   167 55F5:051E   168 55F5:052C   170 55F5:053A   171 55F5:054C
   173 55F5:0550   175 55F5:0555   177 55F5:0561   178 55F5:0573
   180 55F5:0577   182 55F5:057C   183 55F5:0588   184 55F5:0596
   185 55F5:05A6   187 55F5:05AB   188 55F5:05B0   190 55F5:05B5
   191 55F5:05C0   192 55F5:05CE   194 55F5:05DC   195 55F5:05EE
   197 55F5:05F2   199 55F5:05FA   200 55F5:0606   201 55F5:0614
   202 55F5:0624   203 55F5:0629   205 55F5:0649   207 55F5:0652
   208 55F5:065D   209 55F5:066B   210 55F5:0679   211 55F5:068B
   213 55F5:068F   215 55F5:0697   216 55F5:06A3   217 55F5:06B1
   218 55F5:06C1   219 55F5:06C6   221 55F5:06E6   223 55F5:06EF
   224 55F5:06FA   225 55F5:0708   226 55F5:0716   227 55F5:0729
   228 55F5:0738   230 55F5:073C   232 55F5:0741   233 55F5:074D
   234 55F5:075B   235 55F5:076B   236 55F5:0770   237 55F5:077B
   238 55F5:0789   240 55F5:0797   241 55F5:07A9   243 55F5:07AD
   245 55F5:07B2   246 55F5:07BE   247 55F5:07CC   248 55F5:07DC
   249 55F5:07E1   250 55F5:07EC   251 55F5:07FA   252 55F5:0808
   254 55F5:081B   255 55F5:082A   260 55F5:082E   262 55F5:0833
   263 55F5:083F   264 55F5:084D   265 55F5:085D   267 55F5:0862
   268 55F5:0867   270 55F5:086C   271 55F5:0877   272 55F5:0885
   273 55F5:0893   274 55F5:08A5   277 55F5:08A9   279 55F5:08AE
   280 55F5:08BA   281 55F5:08C8   282 55F5:08D8   284 55F5:08DD
   286 55F5:08E2   287 55F5:08ED   288 55F5:08FB   290 55F5:0909
   291 55F5:091B   294 55F5:091F   296 55F5:0924   297 55F5:0930
   298 55F5:093E   299 55F5:094E   301 55F5:0953   303 55F5:0958
   304 55F5:0963   305 55F5:0971   306 55F5:097F   308 55F5:0992
   309 55F5:09A1   312 55F5:09A5   314 55F5:09AA   315 55F5:09B6
   316 55F5:09C4   317 55F5:09E4   318 55F5:09E9   320 55F5:09FE
   321 55F5:0A18   322 55F5:0A23   323 55F5:0A25   324 55F5:0A40
   325 55F5:0A4B   326 55F5:0A4D   327 55F5:0A68   332 55F5:0A73
   334 55F5:0A78   335 55F5:0A83   336 55F5:0A91   337 55F5:0A9F
   338 55F5:0AB1   342 55F5:0AC2   345 55F5:0AC4   346 55F5:0ADA
   348 55F5:0ADF   351 55F5:0AEB   352 55F5:0AF0
Line numbers for cncscwnd.obj(..\cncshow\cncscwnd.cpp) segment CNCSCWND_TEXT

    29 56A4:000B    33 56A4:0013    34 56A4:0023    35 56A4:006B
    36 56A4:00A5    37 56A4:00F0    38 56A4:0107    39 56A4:0138
    40 56A4:0169    41 56A4:016E    45 56A4:0172    50 56A4:0177
    51 56A4:017D    53 56A4:019C    54 56A4:01C4    55 56A4:01CF
    56 56A4:01D4    57 56A4:01E2    58 56A4:01E7    59 56A4:01F3
    60 56A4:0207    64 56A4:020B    67 56A4:0213    70 56A4:0236
    71 56A4:0240    70 56A4:025E    73 56A4:026B    74 56A4:0287
    76 56A4:0297    77 56A4:02A1    78 56A4:02B0    80 56A4:02BB
    84 56A4:02BF    87 56A4:02C7    88 56A4:02CD    90 56A4:02EC
    91 56A4:0314    92 56A4:031E    91 56A4:033C    93 56A4:0349
Line numbers for cncscr.obj(..\cncshow\cncscr.cpp) segment CNCSCR_TEXT

    56 56D8:000D    60 56D8:0015    61 56D8:0022    63 56D8:002E
    64 56D8:0035    65 56D8:0041    68 56D8:0043    69 56D8:0049
    71 56D8:0052    72 56D8:0059    74 56D8:0065    76 56D8:0069
    78 56D8:006E    79 56D8:0076    80 56D8:007B    81 56D8:0080
    82 56D8:0085    83 56D8:008A    84 56D8:008F    85 56D8:0094
    86 56D8:0099    87 56D8:009E    88 56D8:00A3    89 56D8:00A8
    90 56D8:00AD    91 56D8:00B2    92 56D8:00B7    93 56D8:00BC
    94 56D8:00C1    96 56D8:00C5    98 56D8:00CA    99 56D8:00D2
   100 56D8:00D7   101 56D8:00DC   102 56D8:00E1   103 56D8:00E6
   104 56D8:00EB   105 56D8:00F0   106 56D8:00F5   107 56D8:00FA
   108 56D8:00FF   109 56D8:0104   110 56D8:0109   111 56D8:010E
   112 56D8:0113   113 56D8:0118   114 56D8:011D   119 56D8:0121
   124 56D8:012A   125 56D8:0133   126 56D8:0141   127 56D8:0160
   128 56D8:0176   130 56D8:0184   131 56D8:0189   134 56D8:018D
   136 56D8:0192   137 56D8:01A0   138 56D8:01AA   139 56D8:01B5
   140 56D8:01C1   141 56D8:01D5   146 56D8:01DD   149 56D8:01E5
   150 56D8:01F0   151 56D8:020C   152 56D8:0211   153 56D8:0216
   154 56D8:0232   155 56D8:0242   156 56D8:0252   157 56D8:0262
   159 56D8:0269   160 56D8:027A   161 56D8:0287   157 56D8:0291
   163 56D8:029B   164 56D8:02A9   165 56D8:02C8   166 56D8:02CD
   167 56D8:02E9   169 56D8:02F5   170 56D8:0302   167 56D8:0311
   172 56D8:031E   177 56D8:0322   179 56D8:0327   180 56D8:033B
   183 56D8:0345   184 56D8:0359   181 56D8:0363   186 56D8:036E
   189 56D8:0378   190 56D8:038C   187 56D8:0396   192 56D8:03A1
   196 56D8:03A5   199 56D8:03AD   200 56D8:03BC   201 56D8:03C2
   202 56D8:03C8   203 56D8:03CE   204 56D8:03D4   205 56D8:03D8
   206 56D8:03E5   207 56D8:03F6   211 56D8:03FA   213 56D8:03FF
   214 56D8:041F   215 56D8:0424   216 56D8:0438   220 56D8:043C
   222 56D8:0441   223 56D8:0458   224 56D8:046F   225 56D8:0486
   226 56D8:049D   227 56D8:04B1   228 56D8:04BB   229 56D8:04CF
   230 56D8:04D9   231 56D8:04ED   232 56D8:04F7   233 56D8:050B
   234 56D8:0515   237 56D8:0519   239 56D8:051B   240 56D8:0529
   241 56D8:0548   242 56D8:054D   246 56D8:057B   250 56D8:0584
   251 56D8:0589   250 56D8:05A3   252 56D8:05AC   253 56D8:05BA
   254 56D8:05C6   255 56D8:05D4   256 56D8:05FF   259 56D8:0604
   260 56D8:061E   261 56D8:0637   263 56D8:064B   264 56D8:065D
   256 56D8:066F   266 56D8:0678   268 56D8:067C   270 56D8:067E
   271 56D8:068C   272 56D8:06A8   273 56D8:06AD   274 56D8:06B8
   276 56D8:06BB   278 56D8:06BD   279 56D8:06D9   280 56D8:06E8
   282 56D8:06EB   284 56D8:06F0   285 56D8:070C   286 56D8:071A
   287 56D8:0726   288 56D8:072B   289 56D8:0736
Line numbers for cncscmpr.obj(..\cncshow\cncscmpr.cpp) segment CNCSCMPR_TEXT

    42 574B:0019    48 574B:0021    50 574B:003D    51 574B:004F
    53 574B:0054    54 574B:007C    55 574B:008F    57 574B:009D
    58 574B:00AF    60 574B:00B4    61 574B:00D2    62 574B:00DE
    64 574B:00E7    65 574B:00F5    66 574B:0102    61 574B:0106
    68 574B:0117    69 574B:0127    70 574B:0135    71 574B:0142
    72 574B:0145    75 574B:0184    79 574B:018C    81 574B:01B4
    82 574B:01C6    88 574B:01CA    89 574B:01D2    90 574B:01E2
    91 574B:01E9    90 574B:01FD    92 574B:0209    93 574B:0215
    95 574B:0218    98 574B:021C   103 574B:0224   104 574B:0236
   105 574B:0248   106 574B:0259   107 574B:0267   109 574B:0289
   111 574B:02B8   113 574B:02D8   114 574B:02F1   116 574B:02FC
   107 574B:031D   118 574B:0328   119 574B:032C   123 574B:0330
   128 574B:0339   129 574B:0342   130 574B:036A   132 574B:0378
   134 574B:0383   140 574B:038B   141 574B:03B1   142 574B:03D9
   144 574B:03E7   145 574B:03EC   146 574B:0402   148 574B:041B
   149 574B:042C   150 574B:043C   140 574B:0441   153 574B:044E
   154 574B:0450   158 574B:0454   196 574B:0456   197 574B:0459
   199 574B:045C   201 574B:045E   202 574B:0461
Line numbers for cncsbeg.obj(..\cncshow\cncsbeg.cpp) segment CNCSBEG_TEXT

    35 5791:0062    39 5791:006A    41 5791:007D    43 5791:008F
    46 5791:00A1    49 5791:00B3    51 5791:00C5    54 5791:00D7
    55 5791:00F3    56 5791:00FD    57 5791:0123    55 5791:0135
    60 5791:0142    61 5791:015A    63 5791:0172    64 5791:0182
    66 5791:0197    67 5791:01AF    80 5791:01BF    81 5791:01D1
    82 5791:01E4    86 5791:01F7    91 5791:020B    92 5791:0215
    93 5791:022D    91 5791:0237    94 5791:024D    95 5791:0257
    96 5791:026F    94 5791:0279    97 5791:028F    98 5791:0299
    99 5791:02B1    97 5791:02BB   100 5791:02D1   101 5791:02DB
   102 5791:02F3   100 5791:02FD   103 5791:0313   104 5791:031B
   103 5791:032F   108 5791:033B   109 5791:0342   110 5791:0364
   115 5791:0381   116 5791:038E   117 5791:039B   118 5791:03A6
   119 5791:03B1   120 5791:03B4   124 5791:03B8   126 5791:03BA
   129 5791:03C4   132 5791:03D8   133 5791:03ED   136 5791:0402
   139 5791:0417   140 5791:042F   141 5791:0444   143 5791:0459
   144 5791:0481   145 5791:0486
Line numbers for cncsauto.obj(..\cncshow\cncsauto.cpp) segment CNCSAUTO_TEXT

    41 57D9:0009    43 57D9:0011    45 57D9:0023    47 57D9:007C
    48 57D9:008A    49 57D9:008D    50 57D9:009F    51 57D9:00A2
    52 57D9:00B4    53 57D9:00B7    54 57D9:00C9    55 57D9:00CC
    56 57D9:00DE    57 57D9:00E0    58 57D9:00F2    59 57D9:00F4
    60 57D9:0106    61 57D9:0108    62 57D9:011A    63 57D9:011C
    64 57D9:012A    65 57D9:012C    66 57D9:013A    68 57D9:013C
    69 57D9:014F    71 57D9:0152    74 57D9:0156    76 57D9:015B
    77 57D9:016B    78 57D9:0176    79 57D9:0182    81 57D9:01A2
    82 57D9:01CA    83 57D9:01F0    84 57D9:01F3    85 57D9:021B
    86 57D9:0241    87 57D9:0244    88 57D9:026C    89 57D9:0292
    90 57D9:0295    91 57D9:02BD    92 57D9:02E3    93 57D9:02E5
    94 57D9:030D    95 57D9:0333    96 57D9:0335    97 57D9:0340
    99 57D9:034B   101 57D9:0359   103 57D9:035E   105 57D9:036A
   106 57D9:037C   108 57D9:0380   110 57D9:0385   111 57D9:0391
   114 57D9:039A   116 57D9:03A8   117 57D9:03CD   118 57D9:03EE
   120 57D9:03F0   127 57D9:0407   129 57D9:0420   130 57D9:042B
   133 57D9:0430   135 57D9:0435   136 57D9:0440   138 57D9:0449
   139 57D9:0454   140 57D9:0459   144 57D9:045E   145 57D9:0470
   146 57D9:047E   148 57D9:0489   153 57D9:0491   154 57D9:04C1
   156 57D9:04C6   161 57D9:053F   162 57D9:054B   163 57D9:0560
   164 57D9:056B   165 57D9:0570   167 57D9:057B   170 57D9:058B
   171 57D9:059B   173 57D9:05A1   174 57D9:05B8   175 57D9:05C5
   176 57D9:05DA   177 57D9:05E5   179 57D9:05ED   180 57D9:060C
   182 57D9:0618   184 57D9:0621   185 57D9:0626   187 57D9:062B
   188 57D9:0639   189 57D9:0647   190 57D9:0659   191 57D9:0667
   192 57D9:0675   194 57D9:0680   199 57D9:0688   200 57D9:06A8
   202 57D9:06AD   207 57D9:0729   208 57D9:0732   211 57D9:074B
   212 57D9:0757   213 57D9:076C   214 57D9:0777   216 57D9:077C
   217 57D9:0787   218 57D9:0792   219 57D9:07A2   221 57D9:07AE
   224 57D9:07C2   225 57D9:07D2   227 57D9:07D8   228 57D9:07EF
   229 57D9:07FC   230 57D9:0811   231 57D9:081C   232 57D9:0821
   233 57D9:0829   234 57D9:0839   236 57D9:0845   237 57D9:0864
   239 57D9:0870   240 57D9:0879   241 57D9:087E   242 57D9:0890
   243 57D9:089E   245 57D9:08A6   249 57D9:08AE   250 57D9:08CE
   251 57D9:08D3   256 57D9:093A   257 57D9:0943   260 57D9:095C
   261 57D9:0968   262 57D9:097D   263 57D9:0988   265 57D9:098D
   266 57D9:0992   267 57D9:09A2   269 57D9:09AE   270 57D9:09CD
   272 57D9:09D9   273 57D9:09E2   274 57D9:09E7   275 57D9:09F9
   276 57D9:0A07   278 57D9:0A0F   282 57D9:0A14   283 57D9:0A34
   284 57D9:0A39   289 57D9:0AA3   290 57D9:0AAC   293 57D9:0AC5
   294 57D9:0AD1   295 57D9:0AE6   296 57D9:0AF1   298 57D9:0AF6
   299 57D9:0AFB   300 57D9:0B0B   302 57D9:0B17   303 57D9:0B36
   305 57D9:0B42   306 57D9:0B4B   307 57D9:0B50   308 57D9:0B62
   309 57D9:0B70   312 57D9:0B74   316 57D9:0B79   319 57D9:0B89
   320 57D9:0B95   321 57D9:0B9A   322 57D9:0B9F   323 57D9:0BAD
   324 57D9:0BBD   325 57D9:0BC3   326 57D9:0BE2   328 57D9:0BE6
   329 57D9:0BF2   331 57D9:0C1A   333 57D9:0C40   335 57D9:0C66
   336 57D9:0C8C   337 57D9:0C9A   338 57D9:0CA5   339 57D9:0CB1
   342 57D9:0CBA   343 57D9:0CC6   344 57D9:0CCB   346 57D9:0CD1
   347 57D9:0CE3   348 57D9:0CF1   349 57D9:0CFF   351 57D9:0D03
   354 57D9:0D08   357 57D9:0D15   358 57D9:0D1F   361 57D9:0D2D
   362 57D9:0D3D   364 57D9:0D41   367 57D9:0D46   370 57D9:0D53
   371 57D9:0D5D   374 57D9:0D6B   375 57D9:0D7B
Line numbers for cncpar.obj(..\cnccom\cncpar.cpp) segment CNCPAR_TEXT

    49 58B0:0028    50 58B0:002D    51 58B0:0049    52 58B0:0055
    54 58B0:005F    56 58B0:0064    57 58B0:006F    59 58B0:0073
    61 58B0:007B    62 58B0:0083    74 58B0:00BA    75 58B0:00BC
    74 58B0:00D2    78 58B0:00D8    80 58B0:00E2    82 58B0:00F2
    84 58B0:010A    85 58B0:010F    87 58B0:011E    89 58B0:013B
    90 58B0:0140    92 58B0:014F    94 58B0:017C    95 58B0:018B
    97 58B0:0197    98 58B0:019F    99 58B0:01B0   100 58B0:01BB
    78 58B0:01D9   104 58B0:01E1   105 58B0:01F8   107 58B0:0207
   108 58B0:020B   109 58B0:0216   107 58B0:021E   110 58B0:0227
   112 58B0:022B   114 58B0:022D   116 58B0:0230   118 58B0:0238
   120 58B0:0240   123 58B0:024F   125 58B0:025B   126 58B0:0281
   127 58B0:0289   128 58B0:02AC   123 58B0:02B4   130 58B0:02C4
   132 58B0:02C8   134 58B0:02CA   136 58B0:02CD   138 58B0:02D2
   139 58B0:02DD   140 58B0:02E8   141 58B0:02F3   142 58B0:02FE
   144 58B0:030A   146 58B0:030C   147 58B0:0311   149 58B0:0314
   151 58B0:031C   152 58B0:0344   154 58B0:0348   156 58B0:034A
   157 58B0:034D   159 58B0:0350   161 58B0:0352   162 58B0:0354
   164 58B0:0357   166 58B0:035C   167 58B0:038B   169 58B0:038F
   170 58B0:0394   171 58B0:03B0   172 58B0:03BC   174 58B0:03C6
   176 58B0:03CB   177 58B0:03D5   181 58B0:0406   182 58B0:040B
   183 58B0:044D   184 58B0:0459   185 58B0:0463   187 58B0:046D
   188 58B0:0472   189 58B0:04B4   190 58B0:04C0   191 58B0:04D4
   192 58B0:04DE   194 58B0:051A   196 58B0:052E   197 58B0:0552
   198 58B0:055F   201 58B0:0564   202 58B0:0577   203 58B0:0588
   204 58B0:059B   208 58B0:05C7   209 58B0:05DA   210 58B0:05E7
   212 58B0:05EB   214 58B0:05F8   215 58B0:0614   217 58B0:0618
   219 58B0:061D   220 58B0:0628   221 58B0:0639   223 58B0:0648
   225 58B0:064A   226 58B0:064F   228 58B0:0652   230 58B0:065A
   231 58B0:0682   233 58B0:0686   235 58B0:0688   236 58B0:068B
   238 58B0:068E   240 58B0:0690   241 58B0:0692   243 58B0:0695
   245 58B0:069A   246 58B0:06C9   248 58B0:06CD   250 58B0:06D5
   252 58B0:06E4   253 58B0:070C   254 58B0:071F   255 58B0:0748
   257 58B0:074A   258 58B0:0760   259 58B0:0766   261 58B0:076A
   263 58B0:0772   266 58B0:0781   267 58B0:0792   269 58B0:07A9
   270 58B0:07BC   271 58B0:07E5   284 58B0:07FE   285 58B0:0808
   286 58B0:080E   303 58B0:0812   304 58B0:0817   305 58B0:0832
   306 58B0:084A   308 58B0:0854   310 58B0:0859   311 58B0:086C
   312 58B0:087F   313 58B0:0892   314 58B0:08A5   315 58B0:08AB
   317 58B0:08AF   319 58B0:08B4   322 58B0:08C3   323 58B0:08CD
   324 58B0:08D7   325 58B0:08E1   327 58B0:08E9   329 58B0:08F5
   331 58B0:08FD   333 58B0:0925   334 58B0:0930   335 58B0:093B
   336 58B0:0946   337 58B0:0951   338 58B0:095C   339 58B0:0967
   340 58B0:0972   341 58B0:097D   342 58B0:0988   343 58B0:0993
   347 58B0:09A7   349 58B0:09F3   351 58B0:09F8   353 58B0:0A19
   354 58B0:0A24   355 58B0:0A2F   356 58B0:0A3A   360 58B0:0A4E
   362 58B0:0A52   364 58B0:0A57   365 58B0:0A6B   367 58B0:0A6F
   369 58B0:0A74   371 58B0:0A83   372 58B0:0A8E   373 58B0:0A99
   375 58B0:0AA4   377 58B0:0AAD   379 58B0:0AB9   381 58B0:0ABE
   382 58B0:0ACC   383 58B0:0AE0   384 58B0:0AF4   385 58B0:0B0A
   386 58B0:0B10   388 58B0:0B14   390 58B0:0B19   391 58B0:0B27
   392 58B0:0B35   393 58B0:0B43   394 58B0:0B51   395 58B0:0B57
Program entry point at 0000:0000

